Component: ARM Compiler 5.06 update 7 (build 960) Tool: armlink [4d3601]

==============================================================================

Section Cross References

    system_bat32g137.o(i.CLK_GetCoreFreq) refers to system_bat32g137.o(i.__ARM_common_switch8) for __ARM_common_switch8
    system_bat32g137.o(i.SystemCoreClockUpdate) refers to system_bat32g137.o(i.CLK_GetCoreFreq) for CLK_GetCoreFreq
    system_bat32g137.o(i.SystemCoreClockUpdate) refers to system_bat32g137.o(.data) for SystemCoreClock
    system_bat32g137.o(i.SystemInit) refers to system_bat32g137.o(i.CLK_GetCoreFreq) for CLK_GetCoreFreq
    system_bat32g137.o(i.SystemInit) refers to system_bat32g137.o(.data) for SystemCoreClock
    startup_bat32g137_1.o(RESET) refers to startup_bat32g137_1.o(STACK) for __initial_sp
    startup_bat32g137_1.o(RESET) refers to startup_bat32g137_1.o(.text) for Reset_Handler
    startup_bat32g137_1.o(RESET) refers to sys_clock.o(i.SysTick_Handler) for SysTick_Handler
    startup_bat32g137_1.o(RESET) refers to waterflow.o(i.intp_0_6_interrupt) for IRQ01_Handler
    startup_bat32g137_1.o(RESET) refers to appuart.o(i.uart2_interrupt_send) for IRQ07_Handler
    startup_bat32g137_1.o(RESET) refers to appuart.o(i.uart2_interrupt_receive) for IRQ08_Handler
    startup_bat32g137_1.o(RESET) refers to appuart.o(i.uart0_interrupt_send) for IRQ10_Handler
    startup_bat32g137_1.o(RESET) refers to appuart.o(i.uart0_interrupt_receive) for IRQ11_Handler
    startup_bat32g137_1.o(RESET) refers to appuart.o(i.uart1_interrupt_send) for IRQ13_Handler
    startup_bat32g137_1.o(RESET) refers to appuart.o(i.uart1_interrupt_receive) for IRQ14_Handler
    startup_bat32g137_1.o(RESET) refers to waterflow.o(i.IRQ26_Handler) for IRQ26_Handler
    startup_bat32g137_1.o(.text) refers to system_bat32g137.o(i.SystemInit) for SystemInit
    startup_bat32g137_1.o(.text) refers to entry.o(.ARM.Collect$$$$00000000) for __main
    adc.o(i.ADC_Converse) refers to adc.o(i.INTC_DisableIRQ) for INTC_DisableIRQ
    adc.o(i.ADC_Converse) refers to adc.o(i.INTC_ClearPendingIRQ) for INTC_ClearPendingIRQ
    adc.o(i.ADC_Converse) refers to adc.o(i.INTC_GetPendingIRQ) for INTC_GetPendingIRQ
    adc.o(i.ADC_Converse) refers to uidiv.o(.text) for __aeabi_uidivmod
    adc.o(i.ADC_Init) refers to adc.o(i.INTC_DisableIRQ) for INTC_DisableIRQ
    adc.o(i.ADC_Init) refers to adc.o(i.INTC_ClearPendingIRQ) for INTC_ClearPendingIRQ
    adc.o(i.ADC_MidAvg_Filter) refers to uidiv.o(.text) for __aeabi_uidivmod
    adc.o(i.ADC_SelfTest) refers to adc.o(i.INTC_DisableIRQ) for INTC_DisableIRQ
    adc.o(i.ADC_SelfTest) refers to uidiv.o(.text) for __aeabi_uidivmod
    adc.o(i.ADC_SelfTest) refers to adc.o(i.INTC_GetPendingIRQ) for INTC_GetPendingIRQ
    adc.o(i.ADC_SelfTest) refers to adc.o(i.INTC_ClearPendingIRQ) for INTC_ClearPendingIRQ
    adc.o(i.ADC_Start1) refers to adc.o(i.INTC_ClearPendingIRQ) for INTC_ClearPendingIRQ
    adc.o(i.ADC_Stop) refers to adc.o(i.INTC_DisableIRQ) for INTC_DisableIRQ
    adc.o(i.ADC_Stop) refers to adc.o(i.INTC_ClearPendingIRQ) for INTC_ClearPendingIRQ
    gpio.o(i.PORT_Init) refers to system_bat32g137.o(i.__ARM_common_switch8) for __ARM_common_switch8
    sci.o(i.IIC00_MasterReceive) refers to sci.o(i.IIC00_StartCondition) for IIC00_StartCondition
    sci.o(i.IIC00_MasterReceive) refers to sci.o(i.INTC_ClearPendingIRQ) for INTC_ClearPendingIRQ
    sci.o(i.IIC00_MasterReceive) refers to sci.o(i.INTC_EnableIRQ) for INTC_EnableIRQ
    sci.o(i.IIC00_MasterReceive) refers to sci.o(i.__NVIC_EnableIRQ) for __NVIC_EnableIRQ
    sci.o(i.IIC00_MasterReceive) refers to sci.o(i.__NVIC_SetPriority) for __NVIC_SetPriority
    sci.o(i.IIC00_MasterReceive) refers to sci.o(.data) for g_iic00_master_status_flag
    sci.o(i.IIC00_MasterSend) refers to sci.o(i.IIC00_StartCondition) for IIC00_StartCondition
    sci.o(i.IIC00_MasterSend) refers to sci.o(i.INTC_ClearPendingIRQ) for INTC_ClearPendingIRQ
    sci.o(i.IIC00_MasterSend) refers to sci.o(i.INTC_EnableIRQ) for INTC_EnableIRQ
    sci.o(i.IIC00_MasterSend) refers to sci.o(i.__NVIC_EnableIRQ) for __NVIC_EnableIRQ
    sci.o(i.IIC00_MasterSend) refers to sci.o(i.__NVIC_SetPriority) for __NVIC_SetPriority
    sci.o(i.IIC00_MasterSend) refers to sci.o(.data) for g_iic00_master_status_flag
    sci.o(i.IIC00_Stop) refers to sci.o(i.INTC_DisableIRQ) for INTC_DisableIRQ
    sci.o(i.IIC00_Stop) refers to sci.o(i.INTC_ClearPendingIRQ) for INTC_ClearPendingIRQ
    sci.o(i.IIC00_StopCondition) refers to sci.o(.data) for g_iic00_master_status_flag
    sci.o(i.IIC01_MasterReceive) refers to sci.o(i.IIC01_StartCondition) for IIC01_StartCondition
    sci.o(i.IIC01_MasterReceive) refers to sci.o(i.INTC_ClearPendingIRQ) for INTC_ClearPendingIRQ
    sci.o(i.IIC01_MasterReceive) refers to sci.o(i.INTC_EnableIRQ) for INTC_EnableIRQ
    sci.o(i.IIC01_MasterReceive) refers to sci.o(i.__NVIC_EnableIRQ) for __NVIC_EnableIRQ
    sci.o(i.IIC01_MasterReceive) refers to sci.o(.data) for g_iic01_master_status_flag
    sci.o(i.IIC01_MasterSend) refers to sci.o(i.IIC01_StartCondition) for IIC01_StartCondition
    sci.o(i.IIC01_MasterSend) refers to sci.o(i.INTC_ClearPendingIRQ) for INTC_ClearPendingIRQ
    sci.o(i.IIC01_MasterSend) refers to sci.o(i.INTC_EnableIRQ) for INTC_EnableIRQ
    sci.o(i.IIC01_MasterSend) refers to sci.o(i.__NVIC_EnableIRQ) for __NVIC_EnableIRQ
    sci.o(i.IIC01_MasterSend) refers to sci.o(.data) for g_iic01_master_status_flag
    sci.o(i.IIC01_Stop) refers to sci.o(i.INTC_DisableIRQ) for INTC_DisableIRQ
    sci.o(i.IIC01_Stop) refers to sci.o(i.INTC_ClearPendingIRQ) for INTC_ClearPendingIRQ
    sci.o(i.IIC10_MasterReceive) refers to sci.o(i.IIC10_StartCondition) for IIC10_StartCondition
    sci.o(i.IIC10_MasterReceive) refers to sci.o(i.INTC_ClearPendingIRQ) for INTC_ClearPendingIRQ
    sci.o(i.IIC10_MasterReceive) refers to sci.o(i.INTC_EnableIRQ) for INTC_EnableIRQ
    sci.o(i.IIC10_MasterReceive) refers to sci.o(i.__NVIC_EnableIRQ) for __NVIC_EnableIRQ
    sci.o(i.IIC10_MasterReceive) refers to sci.o(i.__NVIC_SetPriority) for __NVIC_SetPriority
    sci.o(i.IIC10_MasterReceive) refers to sci.o(.data) for g_iic10_master_status_flag
    sci.o(i.IIC10_MasterSend) refers to sci.o(i.IIC10_StartCondition) for IIC10_StartCondition
    sci.o(i.IIC10_MasterSend) refers to sci.o(i.INTC_ClearPendingIRQ) for INTC_ClearPendingIRQ
    sci.o(i.IIC10_MasterSend) refers to sci.o(i.INTC_EnableIRQ) for INTC_EnableIRQ
    sci.o(i.IIC10_MasterSend) refers to sci.o(i.__NVIC_EnableIRQ) for __NVIC_EnableIRQ
    sci.o(i.IIC10_MasterSend) refers to sci.o(i.__NVIC_SetPriority) for __NVIC_SetPriority
    sci.o(i.IIC10_MasterSend) refers to sci.o(.data) for g_iic10_master_status_flag
    sci.o(i.IIC10_Stop) refers to sci.o(i.INTC_DisableIRQ) for INTC_DisableIRQ
    sci.o(i.IIC10_Stop) refers to sci.o(i.INTC_ClearPendingIRQ) for INTC_ClearPendingIRQ
    sci.o(i.IIC10_StopCondition) refers to sci.o(.data) for g_iic10_master_status_flag
    sci.o(i.IIC11_MasterReceive) refers to sci.o(i.IIC11_StartCondition) for IIC11_StartCondition
    sci.o(i.IIC11_MasterReceive) refers to sci.o(i.INTC_ClearPendingIRQ) for INTC_ClearPendingIRQ
    sci.o(i.IIC11_MasterReceive) refers to sci.o(i.INTC_EnableIRQ) for INTC_EnableIRQ
    sci.o(i.IIC11_MasterReceive) refers to sci.o(i.__NVIC_EnableIRQ) for __NVIC_EnableIRQ
    sci.o(i.IIC11_MasterReceive) refers to sci.o(.data) for g_iic11_master_status_flag
    sci.o(i.IIC11_MasterSend) refers to sci.o(i.IIC11_StartCondition) for IIC11_StartCondition
    sci.o(i.IIC11_MasterSend) refers to sci.o(i.INTC_ClearPendingIRQ) for INTC_ClearPendingIRQ
    sci.o(i.IIC11_MasterSend) refers to sci.o(i.INTC_EnableIRQ) for INTC_EnableIRQ
    sci.o(i.IIC11_MasterSend) refers to sci.o(i.__NVIC_EnableIRQ) for __NVIC_EnableIRQ
    sci.o(i.IIC11_MasterSend) refers to sci.o(.data) for g_iic11_master_status_flag
    sci.o(i.IIC11_Stop) refers to sci.o(i.INTC_DisableIRQ) for INTC_DisableIRQ
    sci.o(i.IIC11_Stop) refers to sci.o(i.INTC_ClearPendingIRQ) for INTC_ClearPendingIRQ
    sci.o(i.IIC20_MasterReceive) refers to sci.o(i.IIC20_StartCondition) for IIC20_StartCondition
    sci.o(i.IIC20_MasterReceive) refers to sci.o(i.INTC_ClearPendingIRQ) for INTC_ClearPendingIRQ
    sci.o(i.IIC20_MasterReceive) refers to sci.o(i.INTC_EnableIRQ) for INTC_EnableIRQ
    sci.o(i.IIC20_MasterReceive) refers to sci.o(i.__NVIC_EnableIRQ) for __NVIC_EnableIRQ
    sci.o(i.IIC20_MasterReceive) refers to sci.o(i.__NVIC_SetPriority) for __NVIC_SetPriority
    sci.o(i.IIC20_MasterReceive) refers to sci.o(.data) for g_iic20_master_status_flag
    sci.o(i.IIC20_MasterSend) refers to sci.o(i.IIC20_StartCondition) for IIC20_StartCondition
    sci.o(i.IIC20_MasterSend) refers to sci.o(i.INTC_ClearPendingIRQ) for INTC_ClearPendingIRQ
    sci.o(i.IIC20_MasterSend) refers to sci.o(i.INTC_EnableIRQ) for INTC_EnableIRQ
    sci.o(i.IIC20_MasterSend) refers to sci.o(i.__NVIC_EnableIRQ) for __NVIC_EnableIRQ
    sci.o(i.IIC20_MasterSend) refers to sci.o(i.__NVIC_SetPriority) for __NVIC_SetPriority
    sci.o(i.IIC20_MasterSend) refers to sci.o(.data) for g_iic20_master_status_flag
    sci.o(i.IIC20_Stop) refers to sci.o(i.INTC_DisableIRQ) for INTC_DisableIRQ
    sci.o(i.IIC20_Stop) refers to sci.o(i.INTC_ClearPendingIRQ) for INTC_ClearPendingIRQ
    sci.o(i.IIC20_StopCondition) refers to sci.o(.data) for g_iic20_master_status_flag
    sci.o(i.IIC21_MasterReceive) refers to sci.o(i.IIC21_StartCondition) for IIC21_StartCondition
    sci.o(i.IIC21_MasterReceive) refers to sci.o(i.INTC_ClearPendingIRQ) for INTC_ClearPendingIRQ
    sci.o(i.IIC21_MasterReceive) refers to sci.o(i.INTC_EnableIRQ) for INTC_EnableIRQ
    sci.o(i.IIC21_MasterReceive) refers to sci.o(i.__NVIC_EnableIRQ) for __NVIC_EnableIRQ
    sci.o(i.IIC21_MasterReceive) refers to sci.o(.data) for g_iic21_master_status_flag
    sci.o(i.IIC21_MasterSend) refers to sci.o(i.IIC21_StartCondition) for IIC21_StartCondition
    sci.o(i.IIC21_MasterSend) refers to sci.o(i.INTC_ClearPendingIRQ) for INTC_ClearPendingIRQ
    sci.o(i.IIC21_MasterSend) refers to sci.o(i.INTC_EnableIRQ) for INTC_EnableIRQ
    sci.o(i.IIC21_MasterSend) refers to sci.o(i.__NVIC_EnableIRQ) for __NVIC_EnableIRQ
    sci.o(i.IIC21_MasterSend) refers to sci.o(.data) for g_iic21_master_status_flag
    sci.o(i.IIC21_Stop) refers to sci.o(i.INTC_DisableIRQ) for INTC_DisableIRQ
    sci.o(i.IIC21_Stop) refers to sci.o(i.INTC_ClearPendingIRQ) for INTC_ClearPendingIRQ
    sci.o(i.SPI00_MasterReceive) refers to sci.o(i.SPI00_Start) for SPI00_Start
    sci.o(i.SPI00_MasterReceive) refers to sci.o(.data) for dummy_sio00
    sci.o(i.SPI00_MasterSend) refers to sci.o(i.SPI00_Start) for SPI00_Start
    sci.o(i.SPI00_MasterSend) refers to sci.o(.data) for g_spi00_tx_count
    sci.o(i.SPI00_MasterSendReceive) refers to sci.o(i.SPI00_Start) for SPI00_Start
    sci.o(i.SPI00_MasterSendReceive) refers to sci.o(.data) for g_spi00_rx_count
    sci.o(i.SPI00_SlaveReceive) refers to sci.o(i.SPI00_Start) for SPI00_Start
    sci.o(i.SPI00_SlaveReceive) refers to sci.o(.data) for g_spi00_rx_count
    sci.o(i.SPI00_SlaveSend) refers to sci.o(i.SPI00_Start) for SPI00_Start
    sci.o(i.SPI00_SlaveSend) refers to sci.o(.data) for g_spi00_tx_count
    sci.o(i.SPI00_Start) refers to sci.o(i.INTC_ClearPendingIRQ) for INTC_ClearPendingIRQ
    sci.o(i.SPI00_Start) refers to sci.o(i.__NVIC_ClearPendingIRQ) for __NVIC_ClearPendingIRQ
    sci.o(i.SPI00_Start) refers to sci.o(i.INTC_EnableIRQ) for INTC_EnableIRQ
    sci.o(i.SPI00_Start) refers to sci.o(i.__NVIC_EnableIRQ) for __NVIC_EnableIRQ
    sci.o(i.SPI00_Stop) refers to sci.o(i.INTC_DisableIRQ) for INTC_DisableIRQ
    sci.o(i.SPI00_Stop) refers to sci.o(i.__NVIC_DisableIRQ) for __NVIC_DisableIRQ
    sci.o(i.SPI00_Stop) refers to sci.o(i.INTC_ClearPendingIRQ) for INTC_ClearPendingIRQ
    sci.o(i.SPI00_Stop) refers to sci.o(i.__NVIC_ClearPendingIRQ) for __NVIC_ClearPendingIRQ
    sci.o(i.SPI01_MasterReceive) refers to sci.o(i.SPI01_Start) for SPI01_Start
    sci.o(i.SPI01_MasterReceive) refers to sci.o(.data) for g_spi01_rx_count
    sci.o(i.SPI01_MasterSend) refers to sci.o(i.SPI01_Start) for SPI01_Start
    sci.o(i.SPI01_MasterSend) refers to sci.o(.data) for g_spi01_tx_count
    sci.o(i.SPI01_SlaveInit) refers to sci.o(i.__NVIC_SetPriority) for __NVIC_SetPriority
    sci.o(i.SPI01_SlaveReceive) refers to sci.o(i.SPI01_Start) for SPI01_Start
    sci.o(i.SPI01_SlaveReceive) refers to sci.o(.data) for g_spi01_rx_count
    sci.o(i.SPI01_SlaveSend) refers to sci.o(i.SPI01_Start) for SPI01_Start
    sci.o(i.SPI01_SlaveSend) refers to sci.o(.data) for g_spi01_tx_count
    sci.o(i.SPI01_SlaveSendReceive) refers to sci.o(i.SPI01_Start) for SPI01_Start
    sci.o(i.SPI01_SlaveSendReceive) refers to sci.o(.data) for g_spi01_rx_count
    sci.o(i.SPI01_Start) refers to sci.o(i.INTC_ClearPendingIRQ) for INTC_ClearPendingIRQ
    sci.o(i.SPI01_Start) refers to sci.o(i.__NVIC_ClearPendingIRQ) for __NVIC_ClearPendingIRQ
    sci.o(i.SPI01_Start) refers to sci.o(i.INTC_EnableIRQ) for INTC_EnableIRQ
    sci.o(i.SPI01_Start) refers to sci.o(i.__NVIC_EnableIRQ) for __NVIC_EnableIRQ
    sci.o(i.SPI01_Stop) refers to sci.o(i.INTC_DisableIRQ) for INTC_DisableIRQ
    sci.o(i.SPI01_Stop) refers to sci.o(i.__NVIC_DisableIRQ) for __NVIC_DisableIRQ
    sci.o(i.SPI01_Stop) refers to sci.o(i.INTC_ClearPendingIRQ) for INTC_ClearPendingIRQ
    sci.o(i.SPI01_Stop) refers to sci.o(i.__NVIC_ClearPendingIRQ) for __NVIC_ClearPendingIRQ
    sci.o(i.SPI10_MasterReceive) refers to sci.o(i.SPI10_Start) for SPI10_Start
    sci.o(i.SPI10_MasterReceive) refers to sci.o(.data) for dummy_sio10
    sci.o(i.SPI10_MasterSend) refers to sci.o(i.SPI10_Start) for SPI10_Start
    sci.o(i.SPI10_MasterSend) refers to sci.o(.data) for g_spi10_tx_count
    sci.o(i.SPI10_MasterSendReceive) refers to sci.o(i.SPI10_Start) for SPI10_Start
    sci.o(i.SPI10_MasterSendReceive) refers to sci.o(.data) for g_spi10_rx_count
    sci.o(i.SPI10_SlaveInit) refers to sci.o(i.__NVIC_SetPriority) for __NVIC_SetPriority
    sci.o(i.SPI10_SlaveReceive) refers to sci.o(i.SPI10_Start) for SPI10_Start
    sci.o(i.SPI10_SlaveReceive) refers to sci.o(.data) for g_spi10_rx_count
    sci.o(i.SPI10_SlaveSend) refers to sci.o(i.SPI10_Start) for SPI10_Start
    sci.o(i.SPI10_SlaveSend) refers to sci.o(.data) for g_spi10_tx_count
    sci.o(i.SPI10_Start) refers to sci.o(i.INTC_ClearPendingIRQ) for INTC_ClearPendingIRQ
    sci.o(i.SPI10_Start) refers to sci.o(i.__NVIC_ClearPendingIRQ) for __NVIC_ClearPendingIRQ
    sci.o(i.SPI10_Start) refers to sci.o(i.INTC_EnableIRQ) for INTC_EnableIRQ
    sci.o(i.SPI10_Start) refers to sci.o(i.__NVIC_EnableIRQ) for __NVIC_EnableIRQ
    sci.o(i.SPI10_Stop) refers to sci.o(i.INTC_DisableIRQ) for INTC_DisableIRQ
    sci.o(i.SPI10_Stop) refers to sci.o(i.__NVIC_DisableIRQ) for __NVIC_DisableIRQ
    sci.o(i.SPI10_Stop) refers to sci.o(i.INTC_ClearPendingIRQ) for INTC_ClearPendingIRQ
    sci.o(i.SPI10_Stop) refers to sci.o(i.__NVIC_ClearPendingIRQ) for __NVIC_ClearPendingIRQ
    sci.o(i.SPI11_MasterReceive) refers to sci.o(i.SPI11_Start) for SPI11_Start
    sci.o(i.SPI11_MasterReceive) refers to sci.o(.data) for dummy_sio11
    sci.o(i.SPI11_MasterSend) refers to sci.o(i.SPI11_Start) for SPI11_Start
    sci.o(i.SPI11_MasterSend) refers to sci.o(.data) for g_spi11_tx_count
    sci.o(i.SPI11_SlaveInit) refers to sci.o(i.__NVIC_SetPriority) for __NVIC_SetPriority
    sci.o(i.SPI11_SlaveReceive) refers to sci.o(i.SPI11_Start) for SPI11_Start
    sci.o(i.SPI11_SlaveReceive) refers to sci.o(.data) for g_spi11_rx_count
    sci.o(i.SPI11_SlaveSend) refers to sci.o(i.SPI11_Start) for SPI11_Start
    sci.o(i.SPI11_SlaveSend) refers to sci.o(.data) for g_spi11_tx_count
    sci.o(i.SPI11_SlaveSendReceive) refers to sci.o(i.SPI11_Start) for SPI11_Start
    sci.o(i.SPI11_SlaveSendReceive) refers to sci.o(.data) for g_spi11_rx_count
    sci.o(i.SPI11_Start) refers to sci.o(i.INTC_ClearPendingIRQ) for INTC_ClearPendingIRQ
    sci.o(i.SPI11_Start) refers to sci.o(i.__NVIC_ClearPendingIRQ) for __NVIC_ClearPendingIRQ
    sci.o(i.SPI11_Start) refers to sci.o(i.INTC_EnableIRQ) for INTC_EnableIRQ
    sci.o(i.SPI11_Start) refers to sci.o(i.__NVIC_EnableIRQ) for __NVIC_EnableIRQ
    sci.o(i.SPI11_Stop) refers to sci.o(i.INTC_DisableIRQ) for INTC_DisableIRQ
    sci.o(i.SPI11_Stop) refers to sci.o(i.__NVIC_DisableIRQ) for __NVIC_DisableIRQ
    sci.o(i.SPI11_Stop) refers to sci.o(i.INTC_ClearPendingIRQ) for INTC_ClearPendingIRQ
    sci.o(i.SPI11_Stop) refers to sci.o(i.__NVIC_ClearPendingIRQ) for __NVIC_ClearPendingIRQ
    sci.o(i.SPI20_MasterReceive) refers to sci.o(i.SPI20_Start) for SPI20_Start
    sci.o(i.SPI20_MasterReceive) refers to sci.o(i.INTC_GetPendingIRQ) for INTC_GetPendingIRQ
    sci.o(i.SPI20_MasterReceive) refers to sci.o(i.INTC_ClearPendingIRQ) for INTC_ClearPendingIRQ
    sci.o(i.SPI20_MasterReceive) refers to sci.o(i.SPI20_Stop) for SPI20_Stop
    sci.o(i.SPI20_MasterReceive) refers to sci.o(.data) for dummy_sio20
    sci.o(i.SPI20_MasterSend) refers to sci.o(i.SPI20_Start) for SPI20_Start
    sci.o(i.SPI20_MasterSend) refers to sci.o(i.INTC_GetPendingIRQ) for INTC_GetPendingIRQ
    sci.o(i.SPI20_MasterSend) refers to sci.o(i.INTC_ClearPendingIRQ) for INTC_ClearPendingIRQ
    sci.o(i.SPI20_MasterSend) refers to sci.o(i.SPI20_Stop) for SPI20_Stop
    sci.o(i.SPI20_Start) refers to sci.o(i.INTC_ClearPendingIRQ) for INTC_ClearPendingIRQ
    sci.o(i.SPI20_Start) refers to sci.o(i.INTC_EnableIRQ) for INTC_EnableIRQ
    sci.o(i.SPI20_Stop) refers to sci.o(i.INTC_DisableIRQ) for INTC_DisableIRQ
    sci.o(i.SPI20_Stop) refers to sci.o(i.INTC_ClearPendingIRQ) for INTC_ClearPendingIRQ
    sci.o(i.SPI21_MasterReceive) refers to sci.o(i.SPI21_Start) for SPI21_Start
    sci.o(i.SPI21_MasterReceive) refers to sci.o(.data) for g_spi21_rx_count
    sci.o(i.SPI21_MasterSend) refers to sci.o(i.SPI21_Start) for SPI21_Start
    sci.o(i.SPI21_MasterSend) refers to sci.o(.data) for g_spi21_tx_count
    sci.o(i.SPI21_MasterSendReceive) refers to sci.o(i.SPI21_Start) for SPI21_Start
    sci.o(i.SPI21_MasterSendReceive) refers to sci.o(.data) for g_spi21_rx_count
    sci.o(i.SPI21_SlaveInit) refers to sci.o(i.__NVIC_SetPriority) for __NVIC_SetPriority
    sci.o(i.SPI21_SlaveReceive) refers to sci.o(i.SPI21_Start) for SPI21_Start
    sci.o(i.SPI21_SlaveReceive) refers to sci.o(.data) for g_spi21_rx_count
    sci.o(i.SPI21_SlaveSend) refers to sci.o(i.SPI21_Start) for SPI21_Start
    sci.o(i.SPI21_SlaveSend) refers to sci.o(.data) for g_spi21_tx_count
    sci.o(i.SPI21_Start) refers to sci.o(i.INTC_ClearPendingIRQ) for INTC_ClearPendingIRQ
    sci.o(i.SPI21_Start) refers to sci.o(i.INTC_EnableIRQ) for INTC_EnableIRQ
    sci.o(i.SPI21_Stop) refers to sci.o(i.INTC_DisableIRQ) for INTC_DisableIRQ
    sci.o(i.SPI21_Stop) refers to sci.o(i.INTC_ClearPendingIRQ) for INTC_ClearPendingIRQ
    sci.o(i.UART0_BaudRate) refers to sci.o(i.UART_BaudRateCal) for UART_BaudRateCal
    sci.o(i.UART0_Init) refers to sci.o(i.INTC_DisableIRQ) for INTC_DisableIRQ
    sci.o(i.UART0_Init) refers to sci.o(i.INTC_ClearPendingIRQ) for INTC_ClearPendingIRQ
    sci.o(i.UART0_Init) refers to sci.o(i.__NVIC_SetPriority) for __NVIC_SetPriority
    sci.o(i.UART0_Init) refers to sci.o(i.UART0_BaudRate) for UART0_BaudRate
    sci.o(i.UART0_Init) refers to sci.o(i.UART0_Start) for UART0_Start
    sci.o(i.UART0_Start) refers to sci.o(i.INTC_ClearPendingIRQ) for INTC_ClearPendingIRQ
    sci.o(i.UART0_Start) refers to sci.o(i.INTC_EnableIRQ) for INTC_EnableIRQ
    sci.o(i.UART0_Start) refers to sci.o(i.__NVIC_EnableIRQ) for __NVIC_EnableIRQ
    sci.o(i.UART0_Stop) refers to sci.o(i.INTC_DisableIRQ) for INTC_DisableIRQ
    sci.o(i.UART0_Stop) refers to sci.o(i.INTC_ClearPendingIRQ) for INTC_ClearPendingIRQ
    sci.o(i.UART1_BaudRate) refers to sci.o(i.UART_BaudRateCal) for UART_BaudRateCal
    sci.o(i.UART1_Init) refers to sci.o(i.__NVIC_DisableIRQ) for __NVIC_DisableIRQ
    sci.o(i.UART1_Init) refers to sci.o(i.__NVIC_ClearPendingIRQ) for __NVIC_ClearPendingIRQ
    sci.o(i.UART1_Init) refers to sci.o(i.UART1_BaudRate) for UART1_BaudRate
    sci.o(i.UART1_Init) refers to sci.o(i.UART1_Start) for UART1_Start
    sci.o(i.UART1_Receive) refers to sci.o(.data) for g_uart1_rx_count
    sci.o(i.UART1_Send) refers to sci.o(.data) for gp_uart1_tx_address
    sci.o(i.UART1_Start) refers to sci.o(i.INTC_ClearPendingIRQ) for INTC_ClearPendingIRQ
    sci.o(i.UART1_Start) refers to sci.o(i.INTC_EnableIRQ) for INTC_EnableIRQ
    sci.o(i.UART1_Start) refers to sci.o(i.__NVIC_EnableIRQ) for __NVIC_EnableIRQ
    sci.o(i.UART1_Stop) refers to sci.o(i.INTC_DisableIRQ) for INTC_DisableIRQ
    sci.o(i.UART1_Stop) refers to sci.o(i.INTC_ClearPendingIRQ) for INTC_ClearPendingIRQ
    sci.o(i.UART2_BaudRate) refers to sci.o(i.UART_BaudRateCal) for UART_BaudRateCal
    sci.o(i.UART2_Init) refers to sci.o(i.__NVIC_DisableIRQ) for __NVIC_DisableIRQ
    sci.o(i.UART2_Init) refers to sci.o(i.__NVIC_ClearPendingIRQ) for __NVIC_ClearPendingIRQ
    sci.o(i.UART2_Init) refers to sci.o(i.UART2_BaudRate) for UART2_BaudRate
    sci.o(i.UART2_Init) refers to sci.o(i.UART2_Start) for UART2_Start
    sci.o(i.UART2_Receive) refers to sci.o(.data) for g_uart2_rx_count
    sci.o(i.UART2_Send) refers to sci.o(.data) for gp_uart2_tx_address
    sci.o(i.UART2_Start) refers to sci.o(i.INTC_ClearPendingIRQ) for INTC_ClearPendingIRQ
    sci.o(i.UART2_Start) refers to sci.o(i.INTC_EnableIRQ) for INTC_EnableIRQ
    sci.o(i.UART2_Start) refers to sci.o(i.__NVIC_EnableIRQ) for __NVIC_EnableIRQ
    sci.o(i.UART2_Stop) refers to sci.o(i.INTC_DisableIRQ) for INTC_DisableIRQ
    sci.o(i.UART2_Stop) refers to sci.o(i.INTC_ClearPendingIRQ) for INTC_ClearPendingIRQ
    sci.o(i.UART_BaudRateCal) refers to dfltui.o(.text) for __aeabi_ui2d
    sci.o(i.UART_BaudRateCal) refers to pow.o(i.pow) for pow
    sci.o(i.UART_BaudRateCal) refers to ddiv.o(.text) for __aeabi_ddiv
    sci.o(i.UART_BaudRateCal) refers to dflti.o(.text) for __aeabi_i2d
    sci.o(i.UART_BaudRateCal) refers to dmul.o(.text) for __aeabi_dmul
    sci.o(i.UART_BaudRateCal) refers to dadd.o(.text) for __aeabi_dsub
    sci.o(i.UART_BaudRateCal) refers to cdcmple.o(.text) for __aeabi_cdcmple
    tima.o(i.TMA0_EventCount) refers to tima.o(i.INTC_DisableIRQ) for INTC_DisableIRQ
    tima.o(i.TMA0_EventCount) refers to tima.o(i.INTC_ClearPendingIRQ) for INTC_ClearPendingIRQ
    tima.o(i.TMA0_EventCount) refers to tima.o(i.TMA0_Start) for TMA0_Start
    tima.o(i.TMA0_Get_PulsePeriod) refers to tima.o(i.INTC_DisableIRQ) for INTC_DisableIRQ
    tima.o(i.TMA0_Get_PulsePeriod) refers to tima.o(i.INTC_ClearPendingIRQ) for INTC_ClearPendingIRQ
    tima.o(i.TMA0_Get_PulsePeriod) refers to tima.o(i.TMA0_Start) for TMA0_Start
    tima.o(i.TMA0_Get_PulsePeriod) refers to tima.o(i.TMA0_Stop) for TMA0_Stop
    tima.o(i.TMA0_Get_PulsePeriod) refers to tima.o(.data) for g_tma0_ta0_value
    tima.o(i.TMA0_Get_PulseWidth) refers to tima.o(i.INTC_DisableIRQ) for INTC_DisableIRQ
    tima.o(i.TMA0_Get_PulseWidth) refers to tima.o(i.INTC_ClearPendingIRQ) for INTC_ClearPendingIRQ
    tima.o(i.TMA0_Get_PulseWidth) refers to tima.o(i.TMA0_Start) for TMA0_Start
    tima.o(i.TMA0_Get_PulseWidth) refers to tima.o(i.TMA0_Stop) for TMA0_Stop
    tima.o(i.TMA0_Get_PulseWidth) refers to tima.o(.data) for g_tma0_ta0_value
    tima.o(i.TMA0_IntervalTimer) refers to tima.o(i.INTC_DisableIRQ) for INTC_DisableIRQ
    tima.o(i.TMA0_IntervalTimer) refers to tima.o(i.INTC_ClearPendingIRQ) for INTC_ClearPendingIRQ
    tima.o(i.TMA0_SquareOutput) refers to tima.o(i.INTC_DisableIRQ) for INTC_DisableIRQ
    tima.o(i.TMA0_SquareOutput) refers to tima.o(i.INTC_ClearPendingIRQ) for INTC_ClearPendingIRQ
    tima.o(i.TMA0_SquareOutput) refers to tima.o(i.TMA0_Start) for TMA0_Start
    tima.o(i.TMA0_Start) refers to tima.o(i.INTC_ClearPendingIRQ) for INTC_ClearPendingIRQ
    tima.o(i.TMA0_Stop) refers to tima.o(i.INTC_DisableIRQ) for INTC_DisableIRQ
    tima.o(i.TMA0_Stop) refers to tima.o(i.INTC_ClearPendingIRQ) for INTC_ClearPendingIRQ
    retarget.o(i._ttywrch) refers to sci.o(i.UART0_Send) for UART0_Send
    retarget.o(i.fgetc) refers to sci.o(i.UART0_Receive) for UART0_Receive
    retarget.o(i.fgetc) refers to sci.o(i.UART0_Send) for UART0_Send
    retarget.o(i.fputc) refers to sci.o(i.UART0_Send) for UART0_Send
    intp.o(i.INTP_Init) refers to intp.o(i.INTC_DisableIRQ) for INTC_DisableIRQ
    intp.o(i.INTP_Init) refers to intp.o(i.INTC_ClearPendingIRQ) for INTC_ClearPendingIRQ
    intp.o(i.INTP_Start) refers to intp.o(i.INTC_ClearPendingIRQ) for INTC_ClearPendingIRQ
    intp.o(i.INTP_Start) refers to intp.o(i.INTC_EnableIRQ) for INTC_EnableIRQ
    intp.o(i.INTP_Start) refers to intp.o(i.__NVIC_EnableIRQ) for __NVIC_EnableIRQ
    intp.o(i.INTP_Stop) refers to intp.o(i.INTC_DisableIRQ) for INTC_DisableIRQ
    intp.o(i.INTP_Stop) refers to intp.o(i.__NVIC_DisableIRQ) for __NVIC_DisableIRQ
    intp.o(i.INTP_Stop) refers to intp.o(i.INTC_ClearPendingIRQ) for INTC_ClearPendingIRQ
    appuart.o(i.GetDisplayData) refers to memseta.o(.text) for __aeabi_memclr
    appuart.o(i.GetDisplayData) refers to appuart.o(.data) for uart1count
    appuart.o(i.GetDisplayData) refers to appuart.o(.bss) for Uart1GetData
    appuart.o(i.GetFaucetData) refers to memseta.o(.text) for __aeabi_memclr
    appuart.o(i.GetFaucetData) refers to appuart.o(.data) for uart2count
    appuart.o(i.GetFaucetData) refers to appuart.o(.bss) for Uart2GetData
    appuart.o(i.GetWifiData) refers to memseta.o(.text) for __aeabi_memclr
    appuart.o(i.GetWifiData) refers to appuart.o(.data) for uartcount
    appuart.o(i.GetWifiData) refers to appuart.o(.bss) for UartGetData
    appuart.o(i.UartSendDisplayData) refers to appuart.o(i.INTC_EnableIRQ) for INTC_EnableIRQ
    appuart.o(i.UartSendDisplayData) refers to appuart.o(.bss) for uart1Sendcon
    appuart.o(i.UartSendFaucetData) refers to appuart.o(i.INTC_EnableIRQ) for INTC_EnableIRQ
    appuart.o(i.UartSendFaucetData) refers to appuart.o(.bss) for uart2Sendcon
    appuart.o(i.UartSendWifiData) refers to appuart.o(i.INTC_EnableIRQ) for INTC_EnableIRQ
    appuart.o(i.UartSendWifiData) refers to appuart.o(.bss) for uart0Sendcon
    appuart.o(i.uart0_interrupt_receive) refers to appuart.o(i.INTC_ClearPendingIRQ) for INTC_ClearPendingIRQ
    appuart.o(i.uart0_interrupt_receive) refers to appuart.o(.data) for uarttimeout
    appuart.o(i.uart0_interrupt_receive) refers to appuart.o(.bss) for UartGetData
    appuart.o(i.uart0_interrupt_send) refers to appuart.o(i.INTC_ClearPendingIRQ) for INTC_ClearPendingIRQ
    appuart.o(i.uart0_interrupt_send) refers to appuart.o(i.INTC_DisableIRQ) for INTC_DisableIRQ
    appuart.o(i.uart0_interrupt_send) refers to appuart.o(.bss) for uart0Sendcon
    appuart.o(i.uart1_interrupt_receive) refers to appuart.o(i.INTC_ClearPendingIRQ) for INTC_ClearPendingIRQ
    appuart.o(i.uart1_interrupt_receive) refers to appuart.o(.data) for uart1timeout
    appuart.o(i.uart1_interrupt_receive) refers to appuart.o(.bss) for Uart1GetData
    appuart.o(i.uart1_interrupt_send) refers to appuart.o(i.INTC_ClearPendingIRQ) for INTC_ClearPendingIRQ
    appuart.o(i.uart1_interrupt_send) refers to appuart.o(i.INTC_DisableIRQ) for INTC_DisableIRQ
    appuart.o(i.uart1_interrupt_send) refers to appuart.o(.bss) for uart1Sendcon
    appuart.o(i.uart2_interrupt_receive) refers to appuart.o(i.INTC_ClearPendingIRQ) for INTC_ClearPendingIRQ
    appuart.o(i.uart2_interrupt_receive) refers to appuart.o(.data) for uart2timeout
    appuart.o(i.uart2_interrupt_receive) refers to appuart.o(.bss) for Uart2GetData
    appuart.o(i.uart2_interrupt_send) refers to appuart.o(i.INTC_ClearPendingIRQ) for INTC_ClearPendingIRQ
    appuart.o(i.uart2_interrupt_send) refers to appuart.o(i.INTC_DisableIRQ) for INTC_DisableIRQ
    appuart.o(i.uart2_interrupt_send) refers to appuart.o(.bss) for uart2Sendcon
    appuart.o(i.uart_printf1) refers to printfa.o(i.__0vsprintf) for vsprintf
    appuart.o(i.uart_printf1) refers to appuart.o(i.UartSendFaucetData) for UartSendFaucetData
    appuart.o(i.uart_printf1) refers to delay.o(i.delayms) for delayms
    delay.o(i.delayms) refers to wdt.o(i.WDT_Restart) for WDT_Restart
    fifo.o(i.Uart_data_handle) refers to fifo.o(i.fifo_get_size) for fifo_get_size
    fifo.o(i.Uart_data_handle) refers to fifo.o(i.fifo_read_strings) for fifo_read_strings
    fifo.o(i.Uart_data_handle) refers to fifo.o(i.fifo_pop) for fifo_pop
    fifo.o(i.fifo_append_one) refers to fifo.o(i.fifo_is_full) for fifo_is_full
    fifo.o(i.fifo_append_one) refers to idiv.o(.text) for __aeabi_idivmod
    fifo.o(i.fifo_append_one) refers to fifo.o(.bss) for fifo_queue
    fifo.o(i.fifo_clean_all) refers to fifo.o(.bss) for fifo_queue
    fifo.o(i.fifo_empty) refers to fifo.o(.bss) for fifo_queue
    fifo.o(i.fifo_get_size) refers to fifo.o(.bss) for fifo_queue
    fifo.o(i.fifo_init) refers to fifo.o(.bss) for fifo_queue
    fifo.o(i.fifo_is_full) refers to fifo.o(.bss) for fifo_queue
    fifo.o(i.fifo_pop) refers to idiv.o(.text) for __aeabi_idivmod
    fifo.o(i.fifo_pop) refers to fifo.o(.bss) for fifo_queue
    fifo.o(i.fifo_read_strings) refers to uidiv.o(.text) for __aeabi_uidivmod
    fifo.o(i.fifo_read_strings) refers to fifo.o(.bss) for fifo_queue
    ioinit.o(i.IOInit) refers to gpio.o(i.PORT_Init) for PORT_Init
    ioinit.o(i.IOInit) refers to gpio.o(i.PORT_ClrBit) for PORT_ClrBit
    ioinit.o(i.IOInit) refers to drvi2c.o(i.IIC_Init) for IIC_Init
    sys_clock.o(i.SYSClockInit) refers to system_bat32g137.o(i.SystemCoreClockUpdate) for SystemCoreClockUpdate
    sys_clock.o(i.SYSClockInit) refers to uidiv.o(.text) for __aeabi_uidivmod
    sys_clock.o(i.SYSClockInit) refers to sys_clock.o(i.__NVIC_SetPriority) for __NVIC_SetPriority
    sys_clock.o(i.SYSClockInit) refers to system_bat32g137.o(.data) for SystemCoreClock
    sys_clock.o(i.SysTick_Handler) refers to system.o(i.SyStemTimeTask) for SyStemTimeTask
    sys_clock.o(i.SysTick_Handler) refers to uread4.o(.text) for __aeabi_uread4
    sys_clock.o(i.SysTick_Handler) refers to uwrite4.o(.text) for __aeabi_uwrite4
    sys_clock.o(i.SysTick_Handler) refers to system.o(.data) for sSystemTime
    sys_clock.o(i.SysTick_Handler) refers to appuart.o(.data) for uarttimeout
    sys_clock.o(i.SysTick_Handler) refers to waterflow.o(.data) for SysTick1ms
    sys_clock.o(i.SysTick_Handler) refers to system.o(.bss) for TaskTimer
    sys_clock.o(i.SysTick_Handler) refers to task.o(.data) for TaskComps
    system.o(i.GetMCUInfor) refers to memcpya.o(.text) for __aeabi_memcpy4
    system.o(i.GetMCUInfor) refers to strcat.o(.text) for strcat
    system.o(i.GetMCUInfor) refers to strlen.o(.text) for strlen
    system.o(i.GetMCUInfor) refers to system.o(.constdata) for .constdata
    system.o(i.GetMCUInfor) refers to system.o(.conststring) for .conststring
    system.o(i.GetMessage) refers to uread4.o(.text) for __aeabi_uread4
    system.o(i.GetMessage) refers to uwrite4.o(.text) for __aeabi_uwrite4
    system.o(i.GetMessage) refers to system.o(.bss) for MsgQueue
    system.o(i.GetSoftVersion) refers to memcpya.o(.text) for __aeabi_memcpy
    system.o(i.GetSystemTime) refers to memcpya.o(.text) for __aeabi_memcpy
    system.o(i.GetSystemTime) refers to system.o(.data) for sSystemTime
    system.o(i.KillTimer) refers to uwrite4.o(.text) for __aeabi_uwrite4
    system.o(i.KillTimer) refers to system.o(.bss) for TaskTimer
    system.o(i.MonitorTimer) refers to uread4.o(.text) for __aeabi_uread4
    system.o(i.MonitorTimer) refers to uwrite4.o(.text) for __aeabi_uwrite4
    system.o(i.MonitorTimer) refers to system.o(i.SendMessage) for SendMessage
    system.o(i.MonitorTimer) refers to system.o(.bss) for TaskTimer
    system.o(i.SYSInit) refers to memseta.o(.text) for __aeabi_memclr
    system.o(i.SYSInit) refers to uwrite4.o(.text) for __aeabi_uwrite4
    system.o(i.SYSInit) refers to window.o(i.WinInit) for WinInit
    system.o(i.SYSInit) refers to system.o(i.SendMessage) for SendMessage
    system.o(i.SYSInit) refers to system.o(.bss) for TaskTimer
    system.o(i.SYSInit) refers to system.o(.data) for sSystemTime
    system.o(i.SendHGPriotityMessage) refers to system.o(i.SendMessage) for SendMessage
    system.o(i.SendHGPriotityMessage) refers to uwrite4.o(.text) for __aeabi_uwrite4
    system.o(i.SendHGPriotityMessage) refers to system.o(.bss) for MsgQueue
    system.o(i.SendMessage) refers to uread4.o(.text) for __aeabi_uread4
    system.o(i.SendMessage) refers to uwrite4.o(.text) for __aeabi_uwrite4
    system.o(i.SendMessage) refers to system.o(.bss) for MsgQueue
    system.o(i.SetSystemTime) refers to memcpya.o(.text) for __aeabi_memcpy
    system.o(i.SetSystemTime) refers to system.o(.data) for sSystemTime
    system.o(i.SyStemTimeTask) refers to system.o(.data) for sSystemTime
    system.o(i.TimeSetEvent) refers to uwrite4.o(.text) for __aeabi_uwrite4
    system.o(i.TimeSetEvent) refers to system.o(.bss) for TaskTimer
    system.o(i.TimerStart) refers to uread4.o(.text) for __aeabi_uread4
    system.o(i.TimerStart) refers to uwrite4.o(.text) for __aeabi_uwrite4
    system.o(i.TimerStart) refers to system.o(.bss) for TaskTimer
    task.o(i.TaskProcess) refers to task.o(.data) for TaskComps
    task.o(.data) refers to system.o(i.SyStemTimeTask) for SyStemTimeTask
    task.o(.data) refers to keyscan.o(i.TaskKeySan) for TaskKeySan
    task.o(.data) refers to appadc.o(i.MonitorAppADC) for MonitorAppADC
    task.o(.data) refers to appsystem.o(i.DisplayUpdate) for DisplayUpdate
    task.o(.data) refers to appsystem.o(i.MonitorState) for MonitorState
    task.o(.data) refers to drvtds.o(i.MonitorTDS) for MonitorTDS
    task.o(.data) refers to appsystem.o(i.MonitorWater) for MonitorWater
    task.o(.data) refers to waterflow.o(i.UpdataFlowMeterWaterVolume) for UpdataFlowMeterWaterVolume
    task.o(.data) refers to wifi.o(i.MonitrorAlarm) for MonitrorAlarm
    task.o(.data) refers to wifi.o(i.MonitorBigData) for MonitorBigData
    window.o(i.CreatePage) refers to window.o(.bss) for spWinBuff
    window.o(i.DefWindowProc) refers to system_bat32g137.o(i.__ARM_common_switch8) for __ARM_common_switch8
    window.o(i.DefWindowProc) refers to uread4.o(.text) for __aeabi_uread4
    window.o(i.DefWindowProc) refers to window.o(i.WinPageSwitch) for WinPageSwitch
    window.o(i.DefWindowProc) refers to system.o(i.SendMessage) for SendMessage
    window.o(i.GetActiveWindow) refers to window.o(.data) for spWinHand
    window.o(i.GetCursorPos) refers to window.o(.data) for spWinHand
    window.o(i.GetParent) refers to window.o(.data) for spWinFatherHand
    window.o(i.SetCursorPos) refers to window.o(.data) for spWinHand
    window.o(i.WinInit) refers to windesktop.o(i.WinDesktopInit) for WinDesktopInit
    window.o(i.WinInit) refers to winfilterset.o(i.WinFilterSetInit) for WinFilterSetInit
    window.o(i.WinInit) refers to windesktop.o(.bss) for gWinDesktop
    window.o(i.WinInit) refers to window.o(.bss) for spWinBuff
    window.o(i.WinPageSwitch) refers to uread4.o(.text) for __aeabi_uread4
    window.o(i.WinPageSwitch) refers to window.o(.bss) for spWinBuff
    window.o(i.WinPageSwitch) refers to window.o(.data) for spWinHand
    window.o(i.WndProc) refers to appsystem.o(i.StandbyRestart) for StandbyRestart
    window.o(i.WndProc) refers to system.o(i.TimeSetEvent) for TimeSetEvent
    window.o(i.WndProc) refers to system.o(i.SendMessage) for SendMessage
    window.o(i.WndProc) refers to uread4.o(.text) for __aeabi_uread4
    window.o(i.WndProc) refers to window.o(i.DefWindowProc) for DefWindowProc
    window.o(i.WndProc) refers to appsystem.o(.bss) for systemseting
    window.o(i.WndProc) refers to appsystem.o(i.WinTimerOut) for WinTimerOut
    window.o(i.WndProc) refers to window.o(.data) for spWinHand
    window.o(.data) refers to windesktop.o(.bss) for gWinDesktop
    keyscan.o(i.GetKeyState) refers to keyscan.o(i.Getkey) for Getkey
    keyscan.o(i.GetKeyState) refers to system_bat32g137.o(i.__ARM_common_switch8) for __ARM_common_switch8
    keyscan.o(i.GetKeyState) refers to keyscan.o(.data) for u8keystep
    keyscan.o(i.Getkey) refers to drvi2c.o(i.I2C_ReadKey) for I2C_ReadKey
    keyscan.o(i.TaskKeySan) refers to keyscan.o(i.GetKeyState) for GetKeyState
    keyscan.o(i.TaskKeySan) refers to keyscan.o(i.HkeytoVkey) for HkeytoVkey
    keyscan.o(i.TaskKeySan) refers to system.o(i.SendMessage) for SendMessage
    keyscan.o(i.keydownhandle) refers to keyscan.o(.data) for timercount
    winfilterset.o(i.GetFilterSetWin) refers to winfilterset.o(.bss) for gWinFilterSet
    winfilterset.o(i.KeyDownHand) refers to winfilterset.o(.bss) for gWinFilterSet
    winfilterset.o(i.LongKeyHand) refers to winfilterset.o(i.RestFilter) for RestFilter
    winfilterset.o(i.LongKeyHand) refers to wifi.o(i.EQUI_UpdataState) for EQUI_UpdataState
    winfilterset.o(i.LongKeyHand) refers to system.o(i.SendMessage) for SendMessage
    winfilterset.o(i.LongKeyHand) refers to winfilterset.o(.bss) for gWinFilterSet
    winfilterset.o(i.RestFilter) refers to appsystem.o(i.FilterReset_PCB) for FilterReset_PCB
    winfilterset.o(i.RestFilter) refers to appsystem.o(i.FilterReset_RO) for FilterReset_RO
    winfilterset.o(i.Update) refers to drvi2c.o(i.I2C_SendDisplay) for I2C_SendDisplay
    winfilterset.o(i.Update) refers to winfilterset.o(.bss) for gWinFilterSet
    winfilterset.o(i.Update) refers to appsystem.o(.data) for gDisplayReg
    winfilterset.o(i.Update) refers to appsystem.o(.bss) for systemseting
    winfilterset.o(i.WinFilterSetInit) refers to uwrite4.o(.text) for __aeabi_uwrite4
    winfilterset.o(i.WinFilterSetInit) refers to window.o(i.CreatePage) for CreatePage
    winfilterset.o(i.WinFilterSetInit) refers to winfilterset.o(.bss) for gWinFilterSet
    winfilterset.o(i.WinFilterSetInit) refers to winfilterset.o(i.WinPageInit) for WinPageInit
    winfilterset.o(i.WinFilterSetInit) refers to winfilterset.o(i.WinProc) for WinProc
    winfilterset.o(i.WinPageInit) refers to winfilterset.o(.bss) for gWinFilterSet
    winfilterset.o(i.WinProc) refers to winfilterset.o(i.Update) for Update
    winfilterset.o(i.WinProc) refers to uread4.o(.text) for __aeabi_uread4
    winfilterset.o(i.WinProc) refers to winfilterset.o(i.KeyDownHand) for KeyDownHand
    winfilterset.o(i.WinProc) refers to winfilterset.o(i.LongKeyHand) for LongKeyHand
    winfilterset.o(i.WinProc) refers to winfilterset.o(i.KeyContinueHand) for KeyContinueHand
    winfilterset.o(i.WinProc) refers to window.o(i.DefWindowProc) for DefWindowProc
    windesktop.o(i.AllLedFlashTimes) refers to delay.o(i.delayms) for delayms
    windesktop.o(i.AllLedFlashTimes) refers to drvi2c.o(i.I2C_SendDisplay) for I2C_SendDisplay
    windesktop.o(i.AllLedFlashTimes) refers to appsystem.o(.data) for gDisplayReg
    windesktop.o(i.FilterFastInspection) refers to system_bat32g137.o(i.__ARM_common_switch8) for __ARM_common_switch8
    windesktop.o(i.FilterFastInspection) refers to uread4.o(.text) for __aeabi_uread4
    windesktop.o(i.FilterFastInspection) refers to factorymode.o(i.FilterDetection) for FilterDetection
    windesktop.o(i.FilterFastInspection) refers to appsystem.o(.bss) for systemseting
    windesktop.o(i.FilterFastInspection) refers to windesktop.o(.data) for doubleFlag
    windesktop.o(i.GetDesktopWin) refers to windesktop.o(.bss) for gWinDesktop
    windesktop.o(i.KeyContinueHand) refers to windesktop.o(.data) for longkeycount
    windesktop.o(i.KeyDownHand) refers to appsystem.o(i.ExitManualFlush) for ExitManualFlush
    windesktop.o(i.KeyDownHand) refers to appsystem.o(.bss) for gReg
    windesktop.o(i.LongKeyHand) refers to wifi.o(i.EQUI_EnterWifiNetwork) for EQUI_EnterWifiNetwork
    windesktop.o(i.LongKeyHand) refers to system.o(i.SendMessage) for SendMessage
    windesktop.o(i.LongKeyHand) refers to windesktop.o(i.AllLedFlashTimes) for AllLedFlashTimes
    windesktop.o(i.LongKeyHand) refers to appsystem.o(.bss) for systemseting
    windesktop.o(i.UpdateStandby) refers to drvi2c.o(i.I2C_SendDisplay) for I2C_SendDisplay
    windesktop.o(i.UpdateStandby) refers to appsystem.o(.data) for gDisplayReg
    windesktop.o(i.WinDesktopInit) refers to uwrite4.o(.text) for __aeabi_uwrite4
    windesktop.o(i.WinDesktopInit) refers to window.o(i.CreatePage) for CreatePage
    windesktop.o(i.WinDesktopInit) refers to windesktop.o(.bss) for gWinDesktop
    windesktop.o(i.WinDesktopInit) refers to windesktop.o(i.WinPageInit) for WinPageInit
    windesktop.o(i.WinDesktopInit) refers to windesktop.o(i.WinProc) for WinProc
    windesktop.o(i.WinPageInit) refers to appsystem.o(i.DesktopUpdate) for DesktopUpdate
    windesktop.o(i.WinProc) refers to system.o(i.SendMessage) for SendMessage
    windesktop.o(i.WinProc) refers to windesktop.o(i.UpdateStandby) for UpdateStandby
    windesktop.o(i.WinProc) refers to appsystem.o(i.DesktopUpdate) for DesktopUpdate
    windesktop.o(i.WinProc) refers to uread4.o(.text) for __aeabi_uread4
    windesktop.o(i.WinProc) refers to windesktop.o(i.KeyDownHand) for KeyDownHand
    windesktop.o(i.WinProc) refers to windesktop.o(i.LongKeyUpHand) for LongKeyUpHand
    windesktop.o(i.WinProc) refers to windesktop.o(i.LongKeyHand) for LongKeyHand
    windesktop.o(i.WinProc) refers to windesktop.o(i.KeyContinueHand) for KeyContinueHand
    windesktop.o(i.WinProc) refers to window.o(i.DefWindowProc) for DefWindowProc
    windesktop.o(i.WinProc) refers to appsystem.o(.bss) for gReg
    windesktop.o(i.WinProc) refers to windesktop.o(.data) for longkeycount
    drvadc.o(i.ADC_Start) refers to drvadc.o(.data) for ADCChannel
    drvadc.o(i.GetADCValues) refers to adc.o(i.ADC_Converse) for ADC_Converse
    drvadc.o(i.GetADCValues) refers to drvadc.o(.data) for ADCChannel
    drvtds.o(i.CalculateTemp) refers to ffltui.o(.text) for __aeabi_ui2f
    drvtds.o(i.CalculateTemp) refers to f2d.o(.text) for __aeabi_f2d
    drvtds.o(i.CalculateTemp) refers to dmul.o(.text) for __aeabi_dmul
    drvtds.o(i.CalculateTemp) refers to dadd.o(.text) for __aeabi_drsub
    drvtds.o(i.CalculateTemp) refers to d2f.o(.text) for __aeabi_d2f
    drvtds.o(i.GetNTCResVal) refers to appadc.o(i.GetVoltageValue) for GetVoltageValue
    drvtds.o(i.GetNTCResVal) refers to fdiv.o(.text) for __aeabi_fdiv
    drvtds.o(i.GetNTCResVal) refers to fadd.o(.text) for __aeabi_fsub
    drvtds.o(i.GetNTCResVal) refers to ffixui.o(.text) for __aeabi_f2uiz
    drvtds.o(i.GetNTCTemp) refers to drvtds.o(i.GetNTCResVal) for GetNTCResVal
    drvtds.o(i.GetNTCTemp) refers to dfltui.o(.text) for __aeabi_ui2d
    drvtds.o(i.GetNTCTemp) refers to cdrcmple.o(.text) for __aeabi_cdrcmple
    drvtds.o(i.GetNTCTemp) refers to cdcmple.o(.text) for __aeabi_cdcmple
    drvtds.o(i.GetNTCTemp) refers to drvtds.o(i.CalculateTemp) for CalculateTemp
    drvtds.o(i.GetNTCTemp) refers to fmul.o(.text) for __aeabi_fmul
    drvtds.o(i.GetNTCTemp) refers to ffixi.o(.text) for __aeabi_f2iz
    drvtds.o(i.GetNTCTemp) refers to appadc.o(i.AppADCStop) for AppADCStop
    drvtds.o(i.GetNTCTemp) refers to appsystem.o(.bss) for gReg
    drvtds.o(i.GetNTCTemp) refers to drvtds.o(.data) for gTDSTemp
    drvtds.o(i.GetNTCTemp2) refers to drvtds.o(i.GetNTCResVal) for GetNTCResVal
    drvtds.o(i.GetNTCTemp2) refers to dfltui.o(.text) for __aeabi_ui2d
    drvtds.o(i.GetNTCTemp2) refers to cdrcmple.o(.text) for __aeabi_cdrcmple
    drvtds.o(i.GetNTCTemp2) refers to cdcmple.o(.text) for __aeabi_cdcmple
    drvtds.o(i.GetNTCTemp2) refers to drvtds.o(i.CalculateTemp) for CalculateTemp
    drvtds.o(i.GetNTCTemp2) refers to fmul.o(.text) for __aeabi_fmul
    drvtds.o(i.GetNTCTemp2) refers to ffixi.o(.text) for __aeabi_f2iz
    drvtds.o(i.GetNTCTemp2) refers to appadc.o(i.AppADCStop) for AppADCStop
    drvtds.o(i.GetNTCTemp2) refers to appsystem.o(.bss) for gReg
    drvtds.o(i.GetNTCTemp2) refers to drvtds.o(.data) for gTDSTemp2
    drvtds.o(i.GetTDS_net) refers to appadc.o(i.AppADCStart) for AppADCStart
    drvtds.o(i.GetTDS_raw) refers to appadc.o(i.AppADCStart) for AppADCStart
    drvtds.o(i.GetTDS_temp) refers to appadc.o(i.AppADCStart) for AppADCStart
    drvtds.o(i.GetnetTDS) refers to drvtds.o(i.UserTdsPatch) for UserTdsPatch
    drvtds.o(i.GetnetTDS) refers to idiv.o(.text) for __aeabi_idivmod
    drvtds.o(i.GetnetTDS) refers to appadc.o(i.AppADCStop) for AppADCStop
    drvtds.o(i.GetnetTDS) refers to drvtds.o(.data) for UpdateEN
    drvtds.o(i.GetnetTDS) refers to appsystem.o(.bss) for gReg
    drvtds.o(i.GetrawTDS) refers to drvtds.o(i.UserTdsPatch) for UserTdsPatch
    drvtds.o(i.GetrawTDS) refers to appadc.o(i.AppADCStop) for AppADCStop
    drvtds.o(i.GetrawTDS) refers to drvtds.o(.data) for UpdateEN
    drvtds.o(i.GetrawTDS) refers to appsystem.o(.bss) for gReg
    drvtds.o(i.MonitorTDS) refers to drvtds.o(i.SetTDSUpdataEN) for SetTDSUpdataEN
    drvtds.o(i.MonitorTDS) refers to drvtds.o(i.GetTDS_net) for GetTDS_net
    drvtds.o(i.MonitorTDS) refers to drvtds.o(i.GetTDS_raw) for GetTDS_raw
    drvtds.o(i.MonitorTDS) refers to drvtds.o(i.GetTDS_temp) for GetTDS_temp
    drvtds.o(i.MonitorTDS) refers to appsystem.o(.bss) for gReg
    drvtds.o(i.MonitorTDS) refers to drvtds.o(.data) for EveryTimeGetTDSTime
    drvtds.o(i.SetTDSUpdataEN) refers to drvtds.o(.data) for UpdateEN
    drvtds.o(i.TemperatureCompensation) refers to idiv.o(.text) for __aeabi_idivmod
    drvtds.o(i.UserTdsPatch) refers to dfltui.o(.text) for __aeabi_ui2d
    drvtds.o(i.UserTdsPatch) refers to dmul.o(.text) for __aeabi_dmul
    drvtds.o(i.UserTdsPatch) refers to pow.o(i.pow) for pow
    drvtds.o(i.UserTdsPatch) refers to dadd.o(.text) for __aeabi_dadd
    drvtds.o(i.UserTdsPatch) refers to dfixi.o(.text) for __aeabi_d2iz
    drvtds.o(i.UserTdsPatch) refers to drvtds.o(i.TemperatureCompensation) for TemperatureCompensation
    drvtds.o(i.UserTdsPatch) refers to drvtds.o(.data) for gTDSTemp
    drvi2c.o(i.I2C_ReadKey) refers to drvi2c.o(i.IIC_Start) for IIC_Start
    drvi2c.o(i.I2C_ReadKey) refers to drvi2c.o(i.IIC_SendByte) for IIC_SendByte
    drvi2c.o(i.I2C_ReadKey) refers to drvi2c.o(i.IIC_RecvByte) for IIC_RecvByte
    drvi2c.o(i.I2C_ReadKey) refers to drvi2c.o(i.IIC_SendACK) for IIC_SendACK
    drvi2c.o(i.I2C_ReadKey) refers to drvi2c.o(i.IIC_Stop) for IIC_Stop
    drvi2c.o(i.I2C_ReadKey) refers to drvi2c.o(.data) for count
    drvi2c.o(i.I2C_ReadKey) refers to appsystem.o(.bss) for systemseting
    drvi2c.o(i.I2C_ReadOneByte) refers to drvi2c.o(i.IIC_Start) for IIC_Start
    drvi2c.o(i.I2C_ReadOneByte) refers to drvi2c.o(i.IIC_SendByte) for IIC_SendByte
    drvi2c.o(i.I2C_ReadOneByte) refers to drvi2c.o(i.IIC_RecvByte) for IIC_RecvByte
    drvi2c.o(i.I2C_ReadOneByte) refers to drvi2c.o(i.IIC_SendACK) for IIC_SendACK
    drvi2c.o(i.I2C_ReadOneByte) refers to drvi2c.o(i.IIC_Stop) for IIC_Stop
    drvi2c.o(i.I2C_SendDisplay) refers to drvi2c.o(i.IIC_Start) for IIC_Start
    drvi2c.o(i.I2C_SendDisplay) refers to drvi2c.o(i.IIC_SendByte) for IIC_SendByte
    drvi2c.o(i.I2C_SendDisplay) refers to drvi2c.o(i.IIC_Stop) for IIC_Stop
    drvi2c.o(i.I2C_WriteByte) refers to drvi2c.o(i.IIC_Start) for IIC_Start
    drvi2c.o(i.I2C_WriteByte) refers to drvi2c.o(i.IIC_SendByte) for IIC_SendByte
    drvi2c.o(i.I2C_WriteByte) refers to drvi2c.o(i.IIC_Stop) for IIC_Stop
    drvi2c.o(i.IIC_Init) refers to gpio.o(i.PORT_SetBit) for PORT_SetBit
    drvi2c.o(i.IIC_Init) refers to delay.o(i.delayus) for delayus
    drvi2c.o(i.IIC_RecvACK) refers to gpio.o(i.PORT_SetBit) for PORT_SetBit
    drvi2c.o(i.IIC_RecvACK) refers to gpio.o(i.PORT_Init) for PORT_Init
    drvi2c.o(i.IIC_RecvACK) refers to delay.o(i.delayus) for delayus
    drvi2c.o(i.IIC_RecvACK) refers to gpio.o(i.PORT_GetBit) for PORT_GetBit
    drvi2c.o(i.IIC_RecvByte) refers to gpio.o(i.PORT_Init) for PORT_Init
    drvi2c.o(i.IIC_RecvByte) refers to gpio.o(i.PORT_ClrBit) for PORT_ClrBit
    drvi2c.o(i.IIC_RecvByte) refers to delay.o(i.delayus) for delayus
    drvi2c.o(i.IIC_RecvByte) refers to gpio.o(i.PORT_SetBit) for PORT_SetBit
    drvi2c.o(i.IIC_RecvByte) refers to gpio.o(i.PORT_GetBit) for PORT_GetBit
    drvi2c.o(i.IIC_SendACK) refers to gpio.o(i.PORT_SetBit) for PORT_SetBit
    drvi2c.o(i.IIC_SendACK) refers to delay.o(i.delayus) for delayus
    drvi2c.o(i.IIC_SendACK) refers to gpio.o(i.PORT_ClrBit) for PORT_ClrBit
    drvi2c.o(i.IIC_SendByte) refers to gpio.o(i.PORT_ClrBit) for PORT_ClrBit
    drvi2c.o(i.IIC_SendByte) refers to delay.o(i.delayus) for delayus
    drvi2c.o(i.IIC_SendByte) refers to gpio.o(i.PORT_SetBit) for PORT_SetBit
    drvi2c.o(i.IIC_SendByte) refers to drvi2c.o(i.IIC_RecvACK) for IIC_RecvACK
    drvi2c.o(i.IIC_Start) refers to gpio.o(i.PORT_SetBit) for PORT_SetBit
    drvi2c.o(i.IIC_Start) refers to delay.o(i.delayus) for delayus
    drvi2c.o(i.IIC_Start) refers to gpio.o(i.PORT_ClrBit) for PORT_ClrBit
    drvi2c.o(i.IIC_Stop) refers to gpio.o(i.PORT_ClrBit) for PORT_ClrBit
    drvi2c.o(i.IIC_Stop) refers to delay.o(i.delayus) for delayus
    drvi2c.o(i.IIC_Stop) refers to gpio.o(i.PORT_SetBit) for PORT_SetBit
    main.o(i.ADCInit) refers to adc.o(i.ADC_Init) for ADC_Init
    main.o(i.SYS_Init) refers to wdt.o(i.WDT_Restart) for WDT_Restart
    main.o(i.SYS_Init) refers to delay.o(i.delayms) for delayms
    main.o(i.main) refers to sys_clock.o(i.SYSClockInit) for SYSClockInit
    main.o(i.main) refers to ioinit.o(i.IOInit) for IOInit
    main.o(i.main) refers to waterflow.o(i.ExternalInterruptInit) for ExternalInterruptInit
    main.o(i.main) refers to sci.o(i.UART0_Init) for UART0_Init
    main.o(i.main) refers to sci.o(i.UART2_Init) for UART2_Init
    main.o(i.main) refers to main.o(i.SYS_Init) for SYS_Init
    main.o(i.main) refers to fifo.o(i.fifo_init) for fifo_init
    main.o(i.main) refers to main.o(i.ADCInit) for ADCInit
    main.o(i.main) refers to appadc.o(i.AppADCInit) for AppADCInit
    main.o(i.main) refers to system.o(i.SYSInit) for SYSInit
    main.o(i.main) refers to appsystem.o(i.AppSystemInit) for AppSystemInit
    main.o(i.main) refers to savedata.o(i.GetSysSeting) for GetSysSeting
    main.o(i.main) refers to appsystem.o(i.PowerOnDisplay) for PowerOnDisplay
    main.o(i.main) refers to appsystem.o(i.StandbyRestart) for StandbyRestart
    main.o(i.main) refers to wdt.o(i.WDT_Restart) for WDT_Restart
    main.o(i.main) refers to window.o(i.WndProc) for WndProc
    main.o(i.main) refers to system.o(i.GetMessage) for GetMessage
    main.o(i.main) refers to system.o(i.MonitorTimer) for MonitorTimer
    main.o(i.main) refers to task.o(i.TaskProcess) for TaskProcess
    main.o(i.main) refers to appuart.o(i.GetFaucetData) for GetFaucetData
    main.o(i.main) refers to appuart.o(i.GetWifiData) for GetWifiData
    main.o(i.main) refers to system_bat32g137.o(.data) for SystemCoreClock
    main.o(i.main) refers to appsystem.o(.bss) for RecBuff
    main.o(i.main) refers to appsystem.o(.data) for UartFaucetProc
    appsystem.o(i.AppSystemInit) refers to appsystem.o(.bss) for gReg
    appsystem.o(i.Beepring) refers to drvi2c.o(i.I2C_SendDisplay) for I2C_SendDisplay
    appsystem.o(i.Beepring) refers to system.o(i.TimeSetEvent) for TimeSetEvent
    appsystem.o(i.Beepring) refers to appsystem.o(.data) for gDisplayReg
    appsystem.o(i.Beepring) refers to appsystem.o(i.LEDLight) for LEDLight
    appsystem.o(i.CheckFlushState) refers to appsystem.o(.bss) for gReg
    appsystem.o(i.ClearLongTimeWorkFlag) refers to appsystem.o(.bss) for systemseting
    appsystem.o(i.CloseAllPeripheral) refers to appsystem.o(i.SetInletValve) for SetInletValve
    appsystem.o(i.CloseAllPeripheral) refers to appsystem.o(i.SetBoosterPump) for SetBoosterPump
    appsystem.o(i.CloseAllPeripheral) refers to appsystem.o(i.SetWasteWaterValve) for SetWasteWaterValve
    appsystem.o(i.CloseAllPeripheral) refers to modbus.o(i.SendModbusRegData) for SendModbusRegData
    appsystem.o(i.CloseAllPeripheral) refers to system.o(i.TimeSetEvent) for TimeSetEvent
    appsystem.o(i.CloseAllPeripheral) refers to appsystem.o(.bss) for systemseting
    appsystem.o(i.CloseAllPeripheral) refers to appsystem.o(.data) for gDisplayReg
    appsystem.o(i.CloseAllPeripheral) refers to appsystem.o(i.ResetPowerOnFlushFlag) for ResetPowerOnFlushFlag
    appsystem.o(i.ClosePump) refers to appsystem.o(i.SetBoosterPump) for SetBoosterPump
    appsystem.o(i.DesktopUpdate) refers to appsystem.o(i.DisplayError) for DisplayError
    appsystem.o(i.DesktopUpdate) refers to drvi2c.o(i.I2C_SendDisplay) for I2C_SendDisplay
    appsystem.o(i.DesktopUpdate) refers to appsystem.o(.bss) for systemseting
    appsystem.o(i.DesktopUpdate) refers to appsystem.o(.data) for gDisplayReg
    appsystem.o(i.DisplayError) refers to appsystem.o(.bss) for gReg
    appsystem.o(i.DisplayError) refers to appsystem.o(.data) for gDisplayReg
    appsystem.o(i.DisplayUpdate) refers to system.o(i.SendMessage) for SendMessage
    appsystem.o(i.DisplayUpdate) refers to appsystem.o(i.MonitorHVS_Faucet) for MonitorHVS_Faucet
    appsystem.o(i.DisplayUpdate) refers to appsystem.o(.bss) for systemseting
    appsystem.o(i.EnterAutoFlushing) refers to appsystem.o(i.ExitTimer) for ExitTimer
    appsystem.o(i.EnterAutoFlushing) refers to appsystem.o(i.SetInletValve) for SetInletValve
    appsystem.o(i.EnterAutoFlushing) refers to appsystem.o(i.SetWasteWaterValve) for SetWasteWaterValve
    appsystem.o(i.EnterAutoFlushing) refers to system.o(i.TimeSetEvent) for TimeSetEvent
    appsystem.o(i.EnterAutoFlushing) refers to appsystem.o(.bss) for gReg
    appsystem.o(i.EnterAutoFlushing) refers to appsystem.o(i.OpenPump) for OpenPump
    appsystem.o(i.EnterAutoFlushing) refers to appsystem.o(i.ExitAutoFlushing) for ExitAutoFlushing
    appsystem.o(i.EnterBackFlowMode) refers to appsystem.o(i.ExitTimer) for ExitTimer
    appsystem.o(i.EnterBackFlowMode) refers to appsystem.o(i.SetInletValve) for SetInletValve
    appsystem.o(i.EnterBackFlowMode) refers to system.o(i.TimeSetEvent) for TimeSetEvent
    appsystem.o(i.EnterBackFlowMode) refers to appsystem.o(.bss) for gReg
    appsystem.o(i.EnterBackFlowMode) refers to appsystem.o(i.OpenPump_InletValve2) for OpenPump_InletValve2
    appsystem.o(i.EnterBackFlowMode) refers to appsystem.o(i.ExitBackFlowMode) for ExitBackFlowMode
    appsystem.o(i.EnterErrorMode) refers to appsystem.o(i.ExitTimer) for ExitTimer
    appsystem.o(i.EnterErrorMode) refers to appsystem.o(i.SetInletValve) for SetInletValve
    appsystem.o(i.EnterErrorMode) refers to appsystem.o(i.SetBoosterPump) for SetBoosterPump
    appsystem.o(i.EnterErrorMode) refers to appsystem.o(i.SetWasteWaterValve) for SetWasteWaterValve
    appsystem.o(i.EnterErrorMode) refers to appsystem.o(.bss) for gReg
    appsystem.o(i.EnterFCTMode) refers to fct.o(i.FCT_ModeInit) for FCT_ModeInit
    appsystem.o(i.EnterFCTMode) refers to system.o(i.TimeSetEvent) for TimeSetEvent
    appsystem.o(i.EnterFCTMode) refers to appsystem.o(.bss) for gReg
    appsystem.o(i.EnterFCTMode) refers to fct.o(i.FCT_Monitor) for FCT_Monitor
    appsystem.o(i.EnterLiveMode) refers to appsystem.o(i.SetBoosterPump) for SetBoosterPump
    appsystem.o(i.EnterLiveMode) refers to appsystem.o(.bss) for gReg
    appsystem.o(i.EnterLockWaterMode) refers to appsystem.o(i.ExitTimer) for ExitTimer
    appsystem.o(i.EnterLockWaterMode) refers to appsystem.o(i.SetInletValve) for SetInletValve
    appsystem.o(i.EnterLockWaterMode) refers to appsystem.o(i.SetWasteWaterValve) for SetWasteWaterValve
    appsystem.o(i.EnterLockWaterMode) refers to appsystem.o(i.SetBoosterPump) for SetBoosterPump
    appsystem.o(i.EnterLockWaterMode) refers to appsystem.o(.bss) for gReg
    appsystem.o(i.EnterLongTimeWork) refers to appsystem.o(i.ExitTimer) for ExitTimer
    appsystem.o(i.EnterLongTimeWork) refers to appsystem.o(i.SetInletValve) for SetInletValve
    appsystem.o(i.EnterLongTimeWork) refers to appsystem.o(i.SetWasteWaterValve) for SetWasteWaterValve
    appsystem.o(i.EnterLongTimeWork) refers to appsystem.o(i.SetBoosterPump) for SetBoosterPump
    appsystem.o(i.EnterLongTimeWork) refers to appsystem.o(.bss) for gReg
    appsystem.o(i.EnterManualFlush) refers to appsystem.o(i.ExitTimer) for ExitTimer
    appsystem.o(i.EnterManualFlush) refers to appsystem.o(i.SetInletValve) for SetInletValve
    appsystem.o(i.EnterManualFlush) refers to appsystem.o(i.SetWasteWaterValve) for SetWasteWaterValve
    appsystem.o(i.EnterManualFlush) refers to system.o(i.TimeSetEvent) for TimeSetEvent
    appsystem.o(i.EnterManualFlush) refers to appsystem.o(.bss) for gReg
    appsystem.o(i.EnterManualFlush) refers to appsystem.o(i.OpenPump) for OpenPump
    appsystem.o(i.EnterManualFlush) refers to appsystem.o(i.ExitManualFlush) for ExitManualFlush
    appsystem.o(i.EnterPowerOnFlushing) refers to appsystem.o(i.ExitTimer) for ExitTimer
    appsystem.o(i.EnterPowerOnFlushing) refers to appsystem.o(i.SetInletValve) for SetInletValve
    appsystem.o(i.EnterPowerOnFlushing) refers to appsystem.o(i.SetWasteWaterValve) for SetWasteWaterValve
    appsystem.o(i.EnterPowerOnFlushing) refers to system.o(i.TimeSetEvent) for TimeSetEvent
    appsystem.o(i.EnterPowerOnFlushing) refers to appsystem.o(.bss) for gReg
    appsystem.o(i.EnterPowerOnFlushing) refers to appsystem.o(i.OpenPump) for OpenPump
    appsystem.o(i.EnterPowerOnFlushing) refers to appsystem.o(i.ExitPowerOnFlushing) for ExitPowerOnFlushing
    appsystem.o(i.EnterProc) refers to appsystem.o(i.EnterFCTMode) for EnterFCTMode
    appsystem.o(i.EnterProc) refers to factorymode.o(i.EnterFactoryMode) for EnterFactoryMode
    appsystem.o(i.EnterProc) refers to appsystem.o(i.EnterLockWaterMode) for EnterLockWaterMode
    appsystem.o(i.EnterProc) refers to appsystem.o(i.EnterErrorMode) for EnterErrorMode
    appsystem.o(i.EnterProc) refers to appsystem.o(i.EnterPowerOnFlushing) for EnterPowerOnFlushing
    appsystem.o(i.EnterProc) refers to appsystem.o(i.EnterLongTimeWork) for EnterLongTimeWork
    appsystem.o(i.EnterProc) refers to appsystem.o(i.EnterManualFlush) for EnterManualFlush
    appsystem.o(i.EnterProc) refers to appsystem.o(i.EnterLiveMode) for EnterLiveMode
    appsystem.o(i.EnterProc) refers to appsystem.o(i.EnterWorkMode) for EnterWorkMode
    appsystem.o(i.EnterProc) refers to appsystem.o(i.EnterAutoFlushing) for EnterAutoFlushing
    appsystem.o(i.EnterProc) refers to appsystem.o(i.EnterBackFlowMode) for EnterBackFlowMode
    appsystem.o(i.EnterProc) refers to appsystem.o(i.EnterStandby) for EnterStandby
    appsystem.o(i.EnterProc) refers to appsystem.o(.bss) for systemseting
    appsystem.o(i.EnterStandby) refers to appsystem.o(.bss) for gReg
    appsystem.o(i.EnterWorkMode) refers to appsystem.o(i.ExitTimer) for ExitTimer
    appsystem.o(i.EnterWorkMode) refers to uwrite4.o(.text) for __aeabi_uwrite4
    appsystem.o(i.EnterWorkMode) refers to appsystem.o(i.SetInletValve) for SetInletValve
    appsystem.o(i.EnterWorkMode) refers to system.o(i.TimeSetEvent) for TimeSetEvent
    appsystem.o(i.EnterWorkMode) refers to appsystem.o(.bss) for gReg
    appsystem.o(i.EnterWorkMode) refers to appsystem.o(i.OpenPump) for OpenPump
    appsystem.o(i.ExitAutoFlushing) refers to appsystem.o(i.SetInletValve) for SetInletValve
    appsystem.o(i.ExitAutoFlushing) refers to appsystem.o(i.SetWasteWaterValve) for SetWasteWaterValve
    appsystem.o(i.ExitAutoFlushing) refers to appsystem.o(i.SetBoosterPump) for SetBoosterPump
    appsystem.o(i.ExitAutoFlushing) refers to appsystem.o(.bss) for gReg
    appsystem.o(i.ExitBackFlowMode) refers to appsystem.o(i.ExitTimer) for ExitTimer
    appsystem.o(i.ExitBackFlowMode) refers to appsystem.o(i.SetBoosterPump) for SetBoosterPump
    appsystem.o(i.ExitBackFlowMode) refers to appsystem.o(i.SetInletValve2) for SetInletValve2
    appsystem.o(i.ExitBackFlowMode) refers to delay.o(i.delayms) for delayms
    appsystem.o(i.ExitBackFlowMode) refers to appsystem.o(i.SetInletValve) for SetInletValve
    appsystem.o(i.ExitBackFlowMode) refers to appsystem.o(.bss) for gReg
    appsystem.o(i.ExitErrorMode) refers to appsystem.o(.bss) for gReg
    appsystem.o(i.ExitFCTMode) refers to system.o(i.KillTimer) for KillTimer
    appsystem.o(i.ExitFCTMode) refers to modbus.o(i.Modbus_SetReg) for Modbus_SetReg
    appsystem.o(i.ExitFCTMode) refers to appadc.o(i.AppADCInit) for AppADCInit
    appsystem.o(i.ExitFCTMode) refers to appsystem.o(.bss) for gReg
    appsystem.o(i.ExitFCTMode) refers to faucet.o(i.Faucet_proc) for Faucet_proc
    appsystem.o(i.ExitFCTMode) refers to appsystem.o(.data) for UartFaucetProc
    appsystem.o(i.ExitLiveMode) refers to appsystem.o(i.SetBoosterPump) for SetBoosterPump
    appsystem.o(i.ExitLiveMode) refers to appsystem.o(.bss) for gReg
    appsystem.o(i.ExitLockWaterMode) refers to appsystem.o(.bss) for gReg
    appsystem.o(i.ExitLongTimeWork) refers to appsystem.o(.bss) for gReg
    appsystem.o(i.ExitManualFlush) refers to appsystem.o(i.ExitTimer) for ExitTimer
    appsystem.o(i.ExitManualFlush) refers to appsystem.o(i.SetInletValve) for SetInletValve
    appsystem.o(i.ExitManualFlush) refers to appsystem.o(i.SetBoosterPump) for SetBoosterPump
    appsystem.o(i.ExitManualFlush) refers to appsystem.o(i.SetWasteWaterValve) for SetWasteWaterValve
    appsystem.o(i.ExitManualFlush) refers to appsystem.o(.bss) for gReg
    appsystem.o(i.ExitPowerOnFlushing) refers to appsystem.o(i.SetInletValve) for SetInletValve
    appsystem.o(i.ExitPowerOnFlushing) refers to appsystem.o(i.SetWasteWaterValve) for SetWasteWaterValve
    appsystem.o(i.ExitPowerOnFlushing) refers to appsystem.o(i.SetBoosterPump) for SetBoosterPump
    appsystem.o(i.ExitPowerOnFlushing) refers to appsystem.o(.bss) for gReg
    appsystem.o(i.ExitProc) refers to system_bat32g137.o(i.__ARM_common_switch8) for __ARM_common_switch8
    appsystem.o(i.ExitProc) refers to appsystem.o(i.ExitFCTMode) for ExitFCTMode
    appsystem.o(i.ExitProc) refers to factorymode.o(i.ExitFilterFast) for ExitFilterFast
    appsystem.o(i.ExitProc) refers to factorymode.o(i.ExitWaterDetection) for ExitWaterDetection
    appsystem.o(i.ExitProc) refers to factorymode.o(i.ExitGasDetection) for ExitGasDetection
    appsystem.o(i.ExitProc) refers to appsystem.o(i.ExitLockWaterMode) for ExitLockWaterMode
    appsystem.o(i.ExitProc) refers to appsystem.o(i.ExitErrorMode) for ExitErrorMode
    appsystem.o(i.ExitProc) refers to appsystem.o(i.ExitPowerOnFlushing) for ExitPowerOnFlushing
    appsystem.o(i.ExitProc) refers to appsystem.o(i.ExitLongTimeWork) for ExitLongTimeWork
    appsystem.o(i.ExitProc) refers to appsystem.o(i.ExitManualFlush) for ExitManualFlush
    appsystem.o(i.ExitProc) refers to appsystem.o(i.ExitLiveMode) for ExitLiveMode
    appsystem.o(i.ExitProc) refers to appsystem.o(i.ExitWorkMode) for ExitWorkMode
    appsystem.o(i.ExitProc) refers to appsystem.o(i.ExitAutoFlushing) for ExitAutoFlushing
    appsystem.o(i.ExitProc) refers to appsystem.o(i.ExitBackFlowMode) for ExitBackFlowMode
    appsystem.o(i.ExitProc) refers to appsystem.o(.bss) for gReg
    appsystem.o(i.ExitTimer) refers to system.o(i.KillTimer) for KillTimer
    appsystem.o(i.ExitWorkMode) refers to appsystem.o(i.ExitTimer) for ExitTimer
    appsystem.o(i.ExitWorkMode) refers to uread4.o(.text) for __aeabi_uread4
    appsystem.o(i.ExitWorkMode) refers to uwrite4.o(.text) for __aeabi_uwrite4
    appsystem.o(i.ExitWorkMode) refers to system.o(i.KillTimer) for KillTimer
    appsystem.o(i.ExitWorkMode) refers to appsystem.o(i.SetInletValve) for SetInletValve
    appsystem.o(i.ExitWorkMode) refers to system.o(i.TimeSetEvent) for TimeSetEvent
    appsystem.o(i.ExitWorkMode) refers to appsystem.o(.bss) for systemseting
    appsystem.o(i.ExitWorkMode) refers to appsystem.o(i.ClosePump) for ClosePump
    appsystem.o(i.FilterLifeCalculate) refers to uidiv.o(.text) for __aeabi_uidivmod
    appsystem.o(i.FilterLifeCalculate) refers to appsystem.o(.data) for remain
    appsystem.o(i.FilterLifeLive) refers to dflti.o(.text) for __aeabi_i2d
    appsystem.o(i.FilterLifeLive) refers to cdrcmple.o(.text) for __aeabi_cdrcmple
    appsystem.o(i.FilterLifeLive) refers to appsystem.o(.data) for remain
    appsystem.o(i.FilterReset_PCB) refers to uwrite4.o(.text) for __aeabi_uwrite4
    appsystem.o(i.FilterReset_PCB) refers to appsystem.o(i.UpdateFilterLife) for UpdateFilterLife
    appsystem.o(i.FilterReset_PCB) refers to appsystem.o(.bss) for gReg
    appsystem.o(i.FilterReset_RO) refers to uwrite4.o(.text) for __aeabi_uwrite4
    appsystem.o(i.FilterReset_RO) refers to appsystem.o(i.UpdateFilterLife) for UpdateFilterLife
    appsystem.o(i.FilterReset_RO) refers to appsystem.o(.bss) for gReg
    appsystem.o(i.GetHVSstate) refers to gpio.o(i.PORT_GetBit) for PORT_GetBit
    appsystem.o(i.GetHVSstate) refers to appsystem.o(.data) for old
    appsystem.o(i.GetHVSstate) refers to appsystem.o(.bss) for systemseting
    appsystem.o(i.GetLeakADC) refers to appsystem.o(.data) for count
    appsystem.o(i.GetLeakADC) refers to appsystem.o(.bss) for gReg
    appsystem.o(i.GetPumpADC) refers to appsystem.o(i.SetInletValve) for SetInletValve
    appsystem.o(i.GetPumpADC) refers to system.o(i.TimeSetEvent) for TimeSetEvent
    appsystem.o(i.GetPumpADC) refers to appsystem.o(.bss) for gReg
    appsystem.o(i.GetPumpADC) refers to appsystem.o(.data) for pumpcurrent
    appsystem.o(i.GetPumpADC) refers to appsystem.o(i.OpenPump) for OpenPump
    appsystem.o(i.LEDLight) refers to drvi2c.o(i.I2C_SendDisplay) for I2C_SendDisplay
    appsystem.o(i.LEDLight) refers to system.o(i.TimeSetEvent) for TimeSetEvent
    appsystem.o(i.LEDLight) refers to appsystem.o(.data) for gDisplayReg
    appsystem.o(i.LEDLight) refers to appsystem.o(i.CloseAllPeripheral) for CloseAllPeripheral
    appsystem.o(i.MonitorHVS_Faucet) refers to gpio.o(i.PORT_SetBit) for PORT_SetBit
    appsystem.o(i.MonitorHVS_Faucet) refers to gpio.o(i.PORT_ClrBit) for PORT_ClrBit
    appsystem.o(i.MonitorHVS_Faucet) refers to appsystem.o(.bss) for gReg
    appsystem.o(i.MonitorHVS_Faucet) refers to appsystem.o(.data) for opencount
    appsystem.o(i.MonitorState) refers to appsystem.o(i.PowerDownCheck) for PowerDownCheck
    appsystem.o(i.MonitorState) refers to savedata.o(i.SaveSysSeting) for SaveSysSeting
    appsystem.o(i.MonitorState) refers to system.o(i.TimeSetEvent) for TimeSetEvent
    appsystem.o(i.MonitorState) refers to appsystem.o(i.GetHVSstate) for GetHVSstate
    appsystem.o(i.MonitorState) refers to appsystem.o(i.CheckFlushState) for CheckFlushState
    appsystem.o(i.MonitorState) refers to appsystem.o(i.ExitProc) for ExitProc
    appsystem.o(i.MonitorState) refers to appsystem.o(i.EnterProc) for EnterProc
    appsystem.o(i.MonitorState) refers to appsystem.o(.bss) for gReg
    appsystem.o(i.MonitorState) refers to fct.o(.bss) for fctReg
    appsystem.o(i.MonitorState) refers to appsystem.o(i.powerDownSave) for powerDownSave
    appsystem.o(i.MonitorWater) refers to system.o(i.GetSystemTime) for GetSystemTime
    appsystem.o(i.MonitorWater) refers to uread4.o(.text) for __aeabi_uread4
    appsystem.o(i.MonitorWater) refers to uwrite4.o(.text) for __aeabi_uwrite4
    appsystem.o(i.MonitorWater) refers to appsystem.o(i.SetAutoFlushFlag) for SetAutoFlushFlag
    appsystem.o(i.MonitorWater) refers to appsystem.o(i.UpdateFilterLife) for UpdateFilterLife
    appsystem.o(i.MonitorWater) refers to appsystem.o(.data) for min
    appsystem.o(i.MonitorWater) refers to appsystem.o(.bss) for gReg
    appsystem.o(i.OpenPump) refers to appsystem.o(i.SetBoosterPump) for SetBoosterPump
    appsystem.o(i.OpenPump) refers to system.o(i.TimeSetEvent) for TimeSetEvent
    appsystem.o(i.OpenPump) refers to appsystem.o(.bss) for gReg
    appsystem.o(i.OpenPump) refers to appsystem.o(i.WaterCounter) for WaterCounter
    appsystem.o(i.OpenPump_InletValve2) refers to appsystem.o(i.SetInletValve2) for SetInletValve2
    appsystem.o(i.OpenPump_InletValve2) refers to appsystem.o(i.SetBoosterPump) for SetBoosterPump
    appsystem.o(i.ParsingDisplayData) refers to modbus.o(i.ModbusProc) for ModbusProc
    appsystem.o(i.ParsingDisplayData) refers to wifi.o(i.GetSum) for GetSum
    appsystem.o(i.ParsingDisplayData) refers to wifi.o(i.GetCommData) for GetCommData
    appsystem.o(i.PowerDownCheck) refers to gpio.o(i.PORT_GetBit) for PORT_GetBit
    appsystem.o(i.PowerDownCheck) refers to appsystem.o(.data) for powecount
    appsystem.o(i.PowerOnDisplay) refers to drvi2c.o(i.I2C_SendDisplay) for I2C_SendDisplay
    appsystem.o(i.PowerOnDisplay) refers to system.o(i.TimeSetEvent) for TimeSetEvent
    appsystem.o(i.PowerOnDisplay) refers to appsystem.o(.data) for gDisplayReg
    appsystem.o(i.PowerOnDisplay) refers to appsystem.o(.bss) for systemseting
    appsystem.o(i.PowerOnDisplay) refers to appsystem.o(i.Beepring) for Beepring
    appsystem.o(i.ResetPowerOnFlushFlag) refers to appsystem.o(.bss) for systemseting
    appsystem.o(i.RestoreFactory) refers to uwrite4.o(.text) for __aeabi_uwrite4
    appsystem.o(i.RestoreFactory) refers to appsystem.o(i.UpdateFilterLife) for UpdateFilterLife
    appsystem.o(i.RestoreFactory) refers to appsystem.o(.bss) for gReg
    appsystem.o(i.SendDisplayMsg) refers to wifi.o(i.GetSum) for GetSum
    appsystem.o(i.SendDisplayMsg) refers to appuart.o(i.UartSendDisplayData) for UartSendDisplayData
    appsystem.o(i.SetAutoFlushFlag) refers to appsystem.o(.bss) for systemseting
    appsystem.o(i.SetBoosterPump) refers to gpio.o(i.PORT_ClrBit) for PORT_ClrBit
    appsystem.o(i.SetBoosterPump) refers to gpio.o(i.PORT_Init) for PORT_Init
    appsystem.o(i.SetBoosterPump) refers to gpio.o(i.PORT_SetBit) for PORT_SetBit
    appsystem.o(i.SetInletValve) refers to gpio.o(i.PORT_SetBit) for PORT_SetBit
    appsystem.o(i.SetInletValve) refers to gpio.o(i.PORT_ClrBit) for PORT_ClrBit
    appsystem.o(i.SetInletValve2) refers to gpio.o(i.PORT_SetBit) for PORT_SetBit
    appsystem.o(i.SetInletValve2) refers to gpio.o(i.PORT_ClrBit) for PORT_ClrBit
    appsystem.o(i.SetWasteWaterValve) refers to gpio.o(i.PORT_SetBit) for PORT_SetBit
    appsystem.o(i.SetWasteWaterValve) refers to gpio.o(i.PORT_ClrBit) for PORT_ClrBit
    appsystem.o(i.Standby) refers to appsystem.o(.bss) for gReg
    appsystem.o(i.StandbyRestart) refers to system.o(i.TimeSetEvent) for TimeSetEvent
    appsystem.o(i.StandbyRestart) refers to appsystem.o(.bss) for gReg
    appsystem.o(i.StandbyRestart) refers to appsystem.o(i.Standby) for Standby
    appsystem.o(i.UpdateFilterLife) refers to uread4.o(.text) for __aeabi_uread4
    appsystem.o(i.UpdateFilterLife) refers to appsystem.o(i.FilterLifeCalculate) for FilterLifeCalculate
    appsystem.o(i.UpdateFilterLife) refers to appsystem.o(i.FilterLifeLive) for FilterLifeLive
    appsystem.o(i.UpdateFilterLife) refers to appsystem.o(.bss) for systemseting
    appsystem.o(i.WaterCounter) refers to uread4.o(.text) for __aeabi_uread4
    appsystem.o(i.WaterCounter) refers to uwrite4.o(.text) for __aeabi_uwrite4
    appsystem.o(i.WaterCounter) refers to system.o(i.KillTimer) for KillTimer
    appsystem.o(i.WaterCounter) refers to appsystem.o(.bss) for gReg
    appsystem.o(i.WinTimerOut) refers to system.o(i.KillTimer) for KillTimer
    appsystem.o(i.WinTimerOut) refers to appsystem.o(.bss) for systemseting
    appsystem.o(i.powerDownSave) refers to system.o(i.KillTimer) for KillTimer
    appsystem.o(i.powerDownSave) refers to appsystem.o(.data) for count
    appsystem.o(i.powerDownSave) refers to appsystem.o(.bss) for gReg
    appsystem.o(i.powerDownSave) refers to fct.o(.bss) for fctReg
    appsystem.o(.data) refers to appsystem.o(i.ParsingDisplayData) for ParsingDisplayData
    appsystem.o(.data) refers to faucet.o(i.Faucet_proc) for Faucet_proc
    appsystem.o(.data) refers to wifi.o(i.WifiMsgProc) for WifiMsgProc
    savedata.o(i.GetSysSeting) refers to memseta.o(.text) for __aeabi_memclr4
    savedata.o(i.GetSysSeting) refers to sim_eeprom.o(i.FlashDataRead) for FlashDataRead
    savedata.o(i.GetSysSeting) refers to modbus.o(i.GetModbusCRC) for GetModbusCRC
    savedata.o(i.GetSysSeting) refers to uread4.o(.text) for __aeabi_uread4
    savedata.o(i.GetSysSeting) refers to uwrite4.o(.text) for __aeabi_uwrite4
    savedata.o(i.GetSysSeting) refers to appsystem.o(i.RestoreFactory) for RestoreFactory
    savedata.o(i.GetSysSeting) refers to savedata.o(i.SaveSysSeting) for SaveSysSeting
    savedata.o(i.GetSysSeting) refers to savedata.o(i.SysSetingInit) for SysSetingInit
    savedata.o(i.GetSysSeting) refers to savedata.o(.data) for userstaflashblk
    savedata.o(i.GetSysSeting) refers to appsystem.o(.bss) for gReg
    savedata.o(i.SaveSysSeting) refers to memseta.o(.text) for __aeabi_memclr4
    savedata.o(i.SaveSysSeting) refers to uread4.o(.text) for __aeabi_uread4
    savedata.o(i.SaveSysSeting) refers to uwrite4.o(.text) for __aeabi_uwrite4
    savedata.o(i.SaveSysSeting) refers to modbus.o(i.GetModbusCRC) for GetModbusCRC
    savedata.o(i.SaveSysSeting) refers to sim_eeprom.o(i.FlashDataSave) for FlashDataSave
    savedata.o(i.SaveSysSeting) refers to appsystem.o(.bss) for gReg
    savedata.o(i.SaveSysSeting) refers to savedata.o(.data) for userstaflashblk
    savedata.o(i.SysSetingInit) refers to appsystem.o(i.UpdateFilterLife) for UpdateFilterLife
    savedata.o(i.SysSetingInit) refers to appsystem.o(.bss) for systemseting
    savedata.o(i.SysSetingInit) refers to wifi.o(.bss) for gWifiSet
    appadc.o(i.AppADCInit) refers to appadc.o(.bss) for gAppadc
    appadc.o(i.AppADCInit) refers to drvtds.o(i.GetNTCTemp) for GetNTCTemp
    appadc.o(i.AppADCInit) refers to drvtds.o(i.GetnetTDS) for GetnetTDS
    appadc.o(i.AppADCInit) refers to drvtds.o(i.GetrawTDS) for GetrawTDS
    appadc.o(i.AppADCInit) refers to appsystem.o(i.GetLeakADC) for GetLeakADC
    appadc.o(i.AppADCInit) refers to appsystem.o(i.GetPumpADC) for GetPumpADC
    appadc.o(i.AppADCInit) refers to drvtds.o(i.GetNTCTemp2) for GetNTCTemp2
    appadc.o(i.AppADCSetProc) refers to appadc.o(.bss) for gAppadc
    appadc.o(i.AppADCStart) refers to appadc.o(.bss) for gAppadc
    appadc.o(i.AppADCStop) refers to appadc.o(.bss) for gAppadc
    appadc.o(i.GetChannalADCVal) refers to system_bat32g137.o(i.__ARM_common_switch8) for __ARM_common_switch8
    appadc.o(i.GetChannalADCVal) refers to drvadc.o(i.GetADCValues) for GetADCValues
    appadc.o(i.GetChannalADCVal) refers to gpio.o(i.PORT_ClrBit) for PORT_ClrBit
    appadc.o(i.GetChannalADCVal) refers to gpio.o(i.PORT_SetBit) for PORT_SetBit
    appadc.o(i.GetChannalADCVal) refers to delay.o(i.delayus) for delayus
    appadc.o(i.GetChannalADCVal) refers to appadc.o(.data) for rawstep
    appadc.o(i.GetVoltageValue) refers to ffltui.o(.text) for __aeabi_ui2f
    appadc.o(i.GetVoltageValue) refers to fmul.o(.text) for __aeabi_fmul
    appadc.o(i.GetVoltageValue) refers to fdiv.o(.text) for __aeabi_fdiv
    appadc.o(i.MA) refers to appadc.o(i.bubble_sort) for bubble_sort
    appadc.o(i.MA) refers to uidiv.o(.text) for __aeabi_uidivmod
    appadc.o(i.MonitorAppADC) refers to drvadc.o(i.ADC_Start) for ADC_Start
    appadc.o(i.MonitorAppADC) refers to appadc.o(i.GetChannalADCVal) for GetChannalADCVal
    appadc.o(i.MonitorAppADC) refers to appadc.o(i.MA) for MA
    appadc.o(i.MonitorAppADC) refers to appadc.o(.bss) for gAppadc
    factorymode.o(i.EnterFactoryMode) refers to appsystem.o(.bss) for gReg
    factorymode.o(i.ExitFactoryMode) refers to factorymode.o(i.ExitGasDetection) for ExitGasDetection
    factorymode.o(i.ExitFactoryMode) refers to factorymode.o(i.ExitWaterDetection) for ExitWaterDetection
    factorymode.o(i.ExitFactoryMode) refers to factorymode.o(i.ExitFilterFast) for ExitFilterFast
    factorymode.o(i.ExitFactoryMode) refers to appsystem.o(.bss) for systemseting
    factorymode.o(i.ExitFilterFast) refers to appsystem.o(i.UpdateFilterLife) for UpdateFilterLife
    factorymode.o(i.ExitFilterFast) refers to system.o(i.KillTimer) for KillTimer
    factorymode.o(i.ExitFilterFast) refers to appsystem.o(.bss) for systemseting
    factorymode.o(i.ExitGasDetection) refers to system.o(i.KillTimer) for KillTimer
    factorymode.o(i.ExitGasDetection) refers to appsystem.o(i.SetInletValve) for SetInletValve
    factorymode.o(i.ExitGasDetection) refers to appsystem.o(i.SetWasteWaterValve) for SetWasteWaterValve
    factorymode.o(i.ExitGasDetection) refers to appsystem.o(.bss) for systemseting
    factorymode.o(i.ExitWaterDetection) refers to system.o(i.KillTimer) for KillTimer
    factorymode.o(i.ExitWaterDetection) refers to appsystem.o(i.SetInletValve) for SetInletValve
    factorymode.o(i.ExitWaterDetection) refers to appsystem.o(i.SetWasteWaterValve) for SetWasteWaterValve
    factorymode.o(i.ExitWaterDetection) refers to appsystem.o(i.SetBoosterPump) for SetBoosterPump
    factorymode.o(i.ExitWaterDetection) refers to appsystem.o(.bss) for systemseting
    factorymode.o(i.FilterDetection) refers to uread4.o(.text) for __aeabi_uread4
    factorymode.o(i.FilterDetection) refers to appsystem.o(i.SetInletValve) for SetInletValve
    factorymode.o(i.FilterDetection) refers to appsystem.o(i.SetWasteWaterValve) for SetWasteWaterValve
    factorymode.o(i.FilterDetection) refers to appsystem.o(i.SetBoosterPump) for SetBoosterPump
    factorymode.o(i.FilterDetection) refers to system.o(i.TimeSetEvent) for TimeSetEvent
    factorymode.o(i.FilterDetection) refers to appsystem.o(.bss) for systemseting
    factorymode.o(i.FilterDetection) refers to factorymode.o(.data) for powerPCB
    factorymode.o(i.FilterDetection) refers to factorymode.o(i.FilterFast) for FilterFast
    factorymode.o(i.FilterFast) refers to uread4.o(.text) for __aeabi_uread4
    factorymode.o(i.FilterFast) refers to appsystem.o(i.FilterLifeCalculate) for FilterLifeCalculate
    factorymode.o(i.FilterFast) refers to factorymode.o(i.ExitFilterFast) for ExitFilterFast
    factorymode.o(i.FilterFast) refers to factorymode.o(.data) for powerPCB
    factorymode.o(i.FilterFast) refers to appsystem.o(.bss) for gReg
    factorymode.o(i.GasDetection) refers to appsystem.o(i.SetInletValve) for SetInletValve
    factorymode.o(i.GasDetection) refers to appsystem.o(i.SetWasteWaterValve) for SetWasteWaterValve
    factorymode.o(i.GasDetection) refers to appsystem.o(i.SetBoosterPump) for SetBoosterPump
    factorymode.o(i.GasDetection) refers to system.o(i.TimeSetEvent) for TimeSetEvent
    factorymode.o(i.GasDetection) refers to appsystem.o(.bss) for systemseting
    factorymode.o(i.GasDetection) refers to factorymode.o(i.ExitGasDetection) for ExitGasDetection
    factorymode.o(i.WaterDetection) refers to appsystem.o(i.SetInletValve) for SetInletValve
    factorymode.o(i.WaterDetection) refers to appsystem.o(i.SetWasteWaterValve) for SetWasteWaterValve
    factorymode.o(i.WaterDetection) refers to system.o(i.TimeSetEvent) for TimeSetEvent
    factorymode.o(i.WaterDetection) refers to appsystem.o(.bss) for systemseting
    factorymode.o(i.WaterDetection) refers to factorymode.o(i.delayopenpump) for delayopenpump
    factorymode.o(i.WaterDetection) refers to factorymode.o(i.ExitWaterDetection) for ExitWaterDetection
    factorymode.o(i.delayopenpump) refers to appsystem.o(i.SetBoosterPump) for SetBoosterPump
    faucet.o(i.Faucet_Display) refers to faucet.o(i.Faucet_workstate) for Faucet_workstate
    faucet.o(i.Faucet_Display) refers to faucet.o(i.Faucet_PowneOnDisplay) for Faucet_PowneOnDisplay
    faucet.o(i.Faucet_Display) refers to modbus.o(i.Small2BigMode) for Small2BigMode
    faucet.o(i.Faucet_Display) refers to faucet.o(i.GetSum) for GetSum
    faucet.o(i.Faucet_Display) refers to appuart.o(i.UartSendFaucetData) for UartSendFaucetData
    faucet.o(i.Faucet_Display) refers to faucet.o(.bss) for faucet
    faucet.o(i.Faucet_Display) refers to appsystem.o(.bss) for gReg
    faucet.o(i.Faucet_PowneOnDisplay) refers to appsystem.o(.bss) for systemseting
    faucet.o(i.Faucet_PowneOnDisplay) refers to faucet.o(.bss) for faucet
    faucet.o(i.Faucet_proc) refers to faucet.o(i.Faucet_Display) for Faucet_Display
    faucet.o(i.Faucet_proc) refers to appsystem.o(.bss) for systemseting
    faucet.o(i.Faucet_workstate) refers to appsystem.o(.bss) for systemseting
    modbus.o(i.CmdREGHandle) refers to appsystem.o(i.ExitManualFlush) for ExitManualFlush
    modbus.o(i.CmdREGHandle) refers to appsystem.o(i.FilterReset_PCB) for FilterReset_PCB
    modbus.o(i.CmdREGHandle) refers to appsystem.o(i.FilterReset_RO) for FilterReset_RO
    modbus.o(i.CmdREGHandle) refers to appsystem.o(i.RestoreFactory) for RestoreFactory
    modbus.o(i.CmdREGHandle) refers to factorymode.o(i.GasDetection) for GasDetection
    modbus.o(i.CmdREGHandle) refers to factorymode.o(i.WaterDetection) for WaterDetection
    modbus.o(i.CmdREGHandle) refers to factorymode.o(i.FilterDetection) for FilterDetection
    modbus.o(i.CmdREGHandle) refers to factorymode.o(i.ExitFactoryMode) for ExitFactoryMode
    modbus.o(i.CmdREGHandle) refers to appsystem.o(i.EnterFCTMode) for EnterFCTMode
    modbus.o(i.CmdREGHandle) refers to appsystem.o(i.ExitFCTMode) for ExitFCTMode
    modbus.o(i.CmdREGHandle) refers to appsystem.o(i.ClearLongTimeWorkFlag) for ClearLongTimeWorkFlag
    modbus.o(i.CmdREGHandle) refers to appsystem.o(.bss) for systemseting
    modbus.o(i.ModbusProc) refers to modbus.o(i.SendModbusError) for SendModbusError
    modbus.o(i.ModbusProc) refers to modbus.o(i.GetModbusCRC) for GetModbusCRC
    modbus.o(i.ModbusProc) refers to modbus.o(i.SendModbusRegData) for SendModbusRegData
    modbus.o(i.ModbusProc) refers to modbus.o(i.CmdREGHandle) for CmdREGHandle
    modbus.o(i.ModbusProc) refers to savedata.o(i.SaveSysSeting) for SaveSysSeting
    modbus.o(i.ModbusProc) refers to appuart.o(i.UartSendDisplayData) for UartSendDisplayData
    modbus.o(i.ModbusProc) refers to modbus.o(i.WriteRegData) for WriteRegData
    modbus.o(i.ModbusProc) refers to modbus.o(i.ReturnWriteMultiRegOK) for ReturnWriteMultiRegOK
    modbus.o(i.ModbusProc) refers to modbus.o(.data) for REG_ADDR_MAX
    modbus.o(i.Modbus_SetReg) refers to modbus.o(.data) for pReg
    modbus.o(i.ReturnWriteMultiRegOK) refers to modbus.o(i.GetModbusCRC) for GetModbusCRC
    modbus.o(i.ReturnWriteMultiRegOK) refers to appuart.o(i.UartSendDisplayData) for UartSendDisplayData
    modbus.o(i.SendModbusError) refers to modbus.o(i.GetModbusCRC) for GetModbusCRC
    modbus.o(i.SendModbusError) refers to appuart.o(i.UartSendDisplayData) for UartSendDisplayData
    modbus.o(i.SendModbusRegData) refers to memseta.o(.text) for __aeabi_memclr4
    modbus.o(i.SendModbusRegData) refers to modbus.o(i.GetModbusCRC) for GetModbusCRC
    modbus.o(i.SendModbusRegData) refers to appuart.o(i.UartSendDisplayData) for UartSendDisplayData
    modbus.o(i.SendModbusRegData) refers to modbus.o(.data) for pReg
    modbus.o(i.WriteRegData) refers to modbus.o(.data) for pReg
    modbus.o(.data) refers to appsystem.o(.bss) for gReg
    sim_eeprom.o(i.FLASH_ErasePage) refers to flash.o(ram_fetch_code) for EraseSector
    sim_eeprom.o(i.FlashDataRead) refers to malloc.o(i.malloc) for malloc
    sim_eeprom.o(i.FlashDataRead) refers to sim_eeprom.o(i.mReadFlash) for mReadFlash
    sim_eeprom.o(i.FlashDataRead) refers to idiv.o(.text) for __aeabi_idivmod
    sim_eeprom.o(i.FlashDataRead) refers to sim_eeprom.o(i.UserDataCrcCheck) for UserDataCrcCheck
    sim_eeprom.o(i.FlashDataRead) refers to sim_eeprom.o(i.FLASH_ErasePage) for FLASH_ErasePage
    sim_eeprom.o(i.FlashDataRead) refers to malloc.o(i.free) for free
    sim_eeprom.o(i.FlashDataSave) refers to malloc.o(i.malloc) for malloc
    sim_eeprom.o(i.FlashDataSave) refers to sim_eeprom.o(i.UserDataCrcCheck) for UserDataCrcCheck
    sim_eeprom.o(i.FlashDataSave) refers to idiv.o(.text) for __aeabi_idivmod
    sim_eeprom.o(i.FlashDataSave) refers to sim_eeprom.o(i.FLASH_ErasePage) for FLASH_ErasePage
    sim_eeprom.o(i.FlashDataSave) refers to sim_eeprom.o(i.mWriteFlash) for mWriteFlash
    sim_eeprom.o(i.FlashDataSave) refers to malloc.o(i.free) for free
    sim_eeprom.o(i.mWriteFlash) refers to flash.o(ram_fetch_code) for ProgramPage
    fct.o(i.FCT_FaucetDataProc) refers to strstr.o(.text) for strstr
    fct.o(i.FCT_FaucetDataProc) refers to fct.o(.constdata) for FaucetTest
    fct.o(i.FCT_FaucetDataProc) refers to fct.o(.data) for sendcnt
    fct.o(i.FCT_FaucetDataProc) refers to fct.o(.bss) for fctReg
    fct.o(i.FCT_LeakRes) refers to drvadc.o(i.ADC_Start) for ADC_Start
    fct.o(i.FCT_LeakRes) refers to drvadc.o(i.GetADCValues) for GetADCValues
    fct.o(i.FCT_LeakRes) refers to fct.o(i.GetLeakRes) for GetLeakRes
    fct.o(i.FCT_LeakRes) refers to appadc.o(.bss) for gAppadc
    fct.o(i.FCT_LeakRes) refers to fct.o(.bss) for fctReg
    fct.o(i.FCT_ModeInit) refers to modbus.o(i.Modbus_SetReg) for Modbus_SetReg
    fct.o(i.FCT_ModeInit) refers to appsystem.o(.bss) for gReg
    fct.o(i.FCT_ModeInit) refers to fct.o(.bss) for fctReg
    fct.o(i.FCT_ModeInit) refers to fct.o(i.FCT_FaucetDataProc) for FCT_FaucetDataProc
    fct.o(i.FCT_ModeInit) refers to appsystem.o(.data) for UartFaucetProc
    fct.o(i.FCT_Monitor) refers to fct.o(i.FCT_NTCRes) for FCT_NTCRes
    fct.o(i.FCT_Monitor) refers to fct.o(i.FCT_rawTDSRes) for FCT_rawTDSRes
    fct.o(i.FCT_Monitor) refers to fct.o(i.FCT_netTDSRes) for FCT_netTDSRes
    fct.o(i.FCT_Monitor) refers to fct.o(i.FCT_LeakRes) for FCT_LeakRes
    fct.o(i.FCT_Monitor) refers to fct.o(i.FCT_PumpADC) for FCT_PumpADC
    fct.o(i.FCT_Monitor) refers to fct.o(i.FCT_NTC2Res) for FCT_NTC2Res
    fct.o(i.FCT_Monitor) refers to gpio.o(i.PORT_GetBit) for PORT_GetBit
    fct.o(i.FCT_Monitor) refers to appsystem.o(i.SetBoosterPump) for SetBoosterPump
    fct.o(i.FCT_Monitor) refers to appsystem.o(i.SetInletValve) for SetInletValve
    fct.o(i.FCT_Monitor) refers to appsystem.o(i.SetWasteWaterValve) for SetWasteWaterValve
    fct.o(i.FCT_Monitor) refers to strlen.o(.text) for strlen
    fct.o(i.FCT_Monitor) refers to appuart.o(i.UartSendFaucetData) for UartSendFaucetData
    fct.o(i.FCT_Monitor) refers to fct.o(.bss) for fctReg
    fct.o(i.FCT_Monitor) refers to fct.o(.data) for pumpold
    fct.o(i.FCT_Monitor) refers to fct.o(.constdata) for FaucetTest
    fct.o(i.FCT_NTC2Res) refers to drvadc.o(i.ADC_Start) for ADC_Start
    fct.o(i.FCT_NTC2Res) refers to drvadc.o(i.GetADCValues) for GetADCValues
    fct.o(i.FCT_NTC2Res) refers to drvtds.o(i.GetNTCResVal) for GetNTCResVal
    fct.o(i.FCT_NTC2Res) refers to appadc.o(.bss) for gAppadc
    fct.o(i.FCT_NTC2Res) refers to fct.o(.bss) for fctReg
    fct.o(i.FCT_NTCRes) refers to drvadc.o(i.ADC_Start) for ADC_Start
    fct.o(i.FCT_NTCRes) refers to drvadc.o(i.GetADCValues) for GetADCValues
    fct.o(i.FCT_NTCRes) refers to drvtds.o(i.GetNTCResVal) for GetNTCResVal
    fct.o(i.FCT_NTCRes) refers to appadc.o(.bss) for gAppadc
    fct.o(i.FCT_NTCRes) refers to fct.o(.bss) for fctReg
    fct.o(i.FCT_PumpADC) refers to drvadc.o(i.ADC_Start) for ADC_Start
    fct.o(i.FCT_PumpADC) refers to drvadc.o(i.GetADCValues) for GetADCValues
    fct.o(i.FCT_PumpADC) refers to drvtds.o(i.GetNTCResVal) for GetNTCResVal
    fct.o(i.FCT_PumpADC) refers to appadc.o(.bss) for gAppadc
    fct.o(i.FCT_PumpADC) refers to fct.o(.bss) for fctReg
    fct.o(i.FCT_netTDSRes) refers to gpio.o(i.PORT_SetBit) for PORT_SetBit
    fct.o(i.FCT_netTDSRes) refers to gpio.o(i.PORT_ClrBit) for PORT_ClrBit
    fct.o(i.FCT_netTDSRes) refers to drvadc.o(i.ADC_Start) for ADC_Start
    fct.o(i.FCT_netTDSRes) refers to drvadc.o(i.GetADCValues) for GetADCValues
    fct.o(i.FCT_netTDSRes) refers to fct.o(i.GetTDSRes) for GetTDSRes
    fct.o(i.FCT_netTDSRes) refers to appadc.o(.bss) for gAppadc
    fct.o(i.FCT_netTDSRes) refers to fct.o(.bss) for fctReg
    fct.o(i.FCT_rawTDSRes) refers to gpio.o(i.PORT_SetBit) for PORT_SetBit
    fct.o(i.FCT_rawTDSRes) refers to gpio.o(i.PORT_ClrBit) for PORT_ClrBit
    fct.o(i.FCT_rawTDSRes) refers to drvadc.o(i.ADC_Start) for ADC_Start
    fct.o(i.FCT_rawTDSRes) refers to drvadc.o(i.GetADCValues) for GetADCValues
    fct.o(i.FCT_rawTDSRes) refers to fct.o(i.GetTDSRes) for GetTDSRes
    fct.o(i.FCT_rawTDSRes) refers to appadc.o(.bss) for gAppadc
    fct.o(i.FCT_rawTDSRes) refers to fct.o(.bss) for fctReg
    fct.o(i.GetLeakRes) refers to appadc.o(i.GetVoltageValue) for GetVoltageValue
    fct.o(i.GetLeakRes) refers to fdiv.o(.text) for __aeabi_fdiv
    fct.o(i.GetLeakRes) refers to fadd.o(.text) for __aeabi_fsub
    fct.o(i.GetLeakRes) refers to ffixui.o(.text) for __aeabi_f2uiz
    fct.o(i.GetTDSRes) refers to appadc.o(i.GetVoltageValue) for GetVoltageValue
    fct.o(i.GetTDSRes) refers to fdiv.o(.text) for __aeabi_fdiv
    fct.o(i.GetTDSRes) refers to fadd.o(.text) for __aeabi_fsub
    fct.o(i.GetTDSRes) refers to ffixui.o(.text) for __aeabi_f2uiz
    wifi.o(i.ASCII2Hex) refers to _scanf_int.o(.text) for _scanf_int
    wifi.o(i.ASCII2Hex) refers to __0sscanf.o(.text) for __0sscanf
    wifi.o(i.EQUI_ClearWifiConfig) refers to wifi.o(i.WIFI_AddData2protocol) for WIFI_AddData2protocol
    wifi.o(i.EQUI_ClearWifiConfig) refers to wifi.o(.bss) for WIFI_Sendbuf
    wifi.o(i.EQUI_EnterWifiNetwork) refers to wifi.o(i.EQUI_SendWifiNetwork) for EQUI_SendWifiNetwork
    wifi.o(i.EQUI_EnterWifiNetwork) refers to system.o(i.TimeSetEvent) for TimeSetEvent
    wifi.o(i.EQUI_EnterWifiNetwork) refers to wifi.o(.data) for networkcount
    wifi.o(i.EQUI_EnterWifiNetwork) refers to wifi.o(.bss) for gWifiSet
    wifi.o(i.EQUI_EnterWifiNetwork) refers to wifi.o(i.NetworkTimer) for NetworkTimer
    wifi.o(i.EQUI_SendAlarmInfo) refers to wifi.o(i.WIFI_AddData2protocol) for WIFI_AddData2protocol
    wifi.o(i.EQUI_SendAlarmInfo) refers to appsystem.o(.bss) for gReg
    wifi.o(i.EQUI_SendAlarmInfo) refers to wifi.o(.bss) for WIFI_Sendbuf
    wifi.o(i.EQUI_SendWifiNetwork) refers to wifi.o(i.WIFI_AddData2protocol) for WIFI_AddData2protocol
    wifi.o(i.EQUI_SendWifiNetwork) refers to wifi.o(.bss) for WIFI_Sendbuf
    wifi.o(i.EQUI_UpdataState) refers to memseta.o(.text) for __aeabi_memclr
    wifi.o(i.EQUI_UpdataState) refers to system.o(i.GetSystemTime) for GetSystemTime
    wifi.o(i.EQUI_UpdataState) refers to uread4.o(.text) for __aeabi_uread4
    wifi.o(i.EQUI_UpdataState) refers to uidiv.o(.text) for __aeabi_uidivmod
    wifi.o(i.EQUI_UpdataState) refers to wifi.o(i.GetOperationMode) for GetOperationMode
    wifi.o(i.EQUI_UpdataState) refers to wifi.o(i.GetAllError) for GetAllError
    wifi.o(i.EQUI_UpdataState) refers to wifi.o(i.SmallMode2BitMode) for SmallMode2BitMode
    wifi.o(i.EQUI_UpdataState) refers to wifi.o(i.WIFI_AddData2protocol) for WIFI_AddData2protocol
    wifi.o(i.EQUI_UpdataState) refers to appsystem.o(.bss) for gReg
    wifi.o(i.EQUI_UpdataState) refers to wifi.o(.data) for PriFilterResetTimes
    wifi.o(i.EQUI_UpdataState) refers to wifi.o(.bss) for WIFI_Sendbuf
    wifi.o(i.GetOperationMode) refers to system_bat32g137.o(i.__ARM_common_switch8) for __ARM_common_switch8
    wifi.o(i.MonitorBigData) refers to wifi.o(i.EQUI_UpdataState) for EQUI_UpdataState
    wifi.o(i.MonitorBigData) refers to wifi.o(.bss) for gWifiSet
    wifi.o(i.MonitrorAlarm) refers to wifi.o(i.EQUI_UpdataState) for EQUI_UpdataState
    wifi.o(i.MonitrorAlarm) refers to modbus.o(i.GetModbusCRC) for GetModbusCRC
    wifi.o(i.MonitrorAlarm) refers to wifi.o(i.EQUI_SendAlarmInfo) for EQUI_SendAlarmInfo
    wifi.o(i.MonitrorAlarm) refers to appsystem.o(.bss) for systemseting
    wifi.o(i.MonitrorAlarm) refers to wifi.o(.data) for updatacount
    wifi.o(i.MonitrorAlarm) refers to wifi.o(.bss) for gWifiSet
    wifi.o(i.NetworkTimer) refers to system.o(i.KillTimer) for KillTimer
    wifi.o(i.NetworkTimer) refers to wifi.o(i.EQUI_SendWifiNetwork) for EQUI_SendWifiNetwork
    wifi.o(i.NetworkTimer) refers to wifi.o(.data) for networkcount
    wifi.o(i.NetworkTimer) refers to appsystem.o(.bss) for systemseting
    wifi.o(i.NetworkTimer) refers to wifi.o(.bss) for gWifiSet
    wifi.o(i.WIFI_AddData2protocol) refers to wifi.o(i.GetSum) for GetSum
    wifi.o(i.WIFI_AddData2protocol) refers to appuart.o(i.UartSendWifiData) for UartSendWifiData
    wifi.o(i.WIFI_AddData2protocol) refers to wifi.o(.bss) for gWifiSet
    wifi.o(i.WIFI_ControlHand) refers to system_bat32g137.o(i.__ARM_common_switch8) for __ARM_common_switch8
    wifi.o(i.WIFI_ControlHand) refers to wifi.o(i.WIFI_SetTime) for WIFI_SetTime
    wifi.o(i.WIFI_ControlHand) refers to wifi.o(i.WIFI_SetPriFilterReset) for WIFI_SetPriFilterReset
    wifi.o(i.WIFI_ControlHand) refers to wifi.o(i.WIFI_SetRoFilterReset) for WIFI_SetRoFilterReset
    wifi.o(i.WIFI_ControlHand) refers to appsystem.o(i.StandbyRestart) for StandbyRestart
    wifi.o(i.WIFI_ControlHand) refers to appsystem.o(i.ExitManualFlush) for ExitManualFlush
    wifi.o(i.WIFI_ControlHand) refers to wifi.o(i.EQUI_UpdataState) for EQUI_UpdataState
    wifi.o(i.WIFI_ControlHand) refers to appsystem.o(.bss) for systemseting
    wifi.o(i.WIFI_GetWifiStatus) refers to wifi.o(i.WIFI_AddData2protocol) for WIFI_AddData2protocol
    wifi.o(i.WIFI_GetWifiStatus) refers to wifi.o(.bss) for gWifiSet
    wifi.o(i.WIFI_GetWifiStatus) refers to appsystem.o(.bss) for systemseting
    wifi.o(i.WIFI_SendTypeID) refers to memcpya.o(.text) for __aeabi_memcpy4
    wifi.o(i.WIFI_SendTypeID) refers to strlen.o(.text) for strlen
    wifi.o(i.WIFI_SendTypeID) refers to wifi.o(i.ASCII2Hex) for ASCII2Hex
    wifi.o(i.WIFI_SendTypeID) refers to wifi.o(i.WIFI_AddData2protocol) for WIFI_AddData2protocol
    wifi.o(i.WIFI_SendTypeID) refers to wifi.o(.conststring) for .conststring
    wifi.o(i.WIFI_SendTypeID) refers to wifi.o(.bss) for WIFI_Sendbuf
    wifi.o(i.WIFI_SetBigDataHeartbeat) refers to wifi.o(i.WIFI_AddData2protocol) for WIFI_AddData2protocol
    wifi.o(i.WIFI_SetBigDataHeartbeat) refers to wifi.o(.bss) for gWifiSet
    wifi.o(i.WIFI_SetHeartbeat) refers to wifi.o(i.WIFI_AddData2protocol) for WIFI_AddData2protocol
    wifi.o(i.WIFI_SetHeartbeat) refers to wifi.o(.bss) for gWifiSet
    wifi.o(i.WIFI_SetPriFilterReset) refers to appsystem.o(i.StandbyRestart) for StandbyRestart
    wifi.o(i.WIFI_SetPriFilterReset) refers to appsystem.o(i.FilterReset_PCB) for FilterReset_PCB
    wifi.o(i.WIFI_SetRoFilterReset) refers to appsystem.o(i.StandbyRestart) for StandbyRestart
    wifi.o(i.WIFI_SetRoFilterReset) refers to appsystem.o(i.FilterReset_RO) for FilterReset_RO
    wifi.o(i.WIFI_SetTime) refers to system.o(i.SetSystemTime) for SetSystemTime
    wifi.o(i.WIIF_SendEquiVersion) refers to memseta.o(.text) for __aeabi_memclr4
    wifi.o(i.WIIF_SendEquiVersion) refers to strcpy.o(.text) for strcpy
    wifi.o(i.WIIF_SendEquiVersion) refers to wifi.o(i.GetEncryptionFlag) for GetEncryptionFlag
    wifi.o(i.WIIF_SendEquiVersion) refers to wifi.o(i.WIFI_AddData2protocol) for WIFI_AddData2protocol
    wifi.o(i.WIIF_SendEquiVersion) refers to wifi.o(.bss) for WIFI_Sendbuf
    wifi.o(i.WifiMsgProc) refers to wifi.o(i.GetSum) for GetSum
    wifi.o(i.WifiMsgProc) refers to wifi.o(i.GetCommData) for GetCommData
    wifi.o(i.WifiMsgProc) refers to system_bat32g137.o(i.__ARM_common_switch8) for __ARM_common_switch8
    wifi.o(i.WifiMsgProc) refers to wifi.o(i.WIFI_ControlHand) for WIFI_ControlHand
    wifi.o(i.WifiMsgProc) refers to wifi.o(i.WIFI_AddData2protocol) for WIFI_AddData2protocol
    wifi.o(i.WifiMsgProc) refers to wifi.o(i.WIIF_SendEquiVersion) for WIIF_SendEquiVersion
    wifi.o(i.WifiMsgProc) refers to wifi.o(i.WIFI_SendTypeID) for WIFI_SendTypeID
    wifi.o(i.WifiMsgProc) refers to wifi.o(i.EQUI_SendAlarmInfo) for EQUI_SendAlarmInfo
    wifi.o(i.WifiMsgProc) refers to wifi.o(i.WIFI_SetHeartbeat) for WIFI_SetHeartbeat
    wifi.o(i.WifiMsgProc) refers to wifi.o(i.WIFI_GetWifiStatus) for WIFI_GetWifiStatus
    wifi.o(i.WifiMsgProc) refers to wifi.o(i.WIFI_SetBigDataHeartbeat) for WIFI_SetBigDataHeartbeat
    wifi.o(i.WifiMsgProc) refers to wifi.o(.bss) for gWifiSet
    wifi.o(i.WifiMsgProc) refers to appsystem.o(.bss) for systemseting
    waterflow.o(i.ExternalInterruptInit) refers to gpio.o(i.PORT_Init) for PORT_Init
    waterflow.o(i.ExternalInterruptInit) refers to intp.o(i.INTP_Init) for INTP_Init
    waterflow.o(i.ExternalInterruptInit) refers to intp.o(i.INTP_Start) for INTP_Start
    waterflow.o(i.GetFlowMeterPulse) refers to waterflow.o(.data) for SysTick1ms
    waterflow.o(i.ResetFlowMeterParam) refers to waterflow.o(.bss) for FlowMeter1st
    waterflow.o(i.UpdataFlowMeterWaterVolume) refers to waterflow.o(i.GetFlowMeterPulse) for GetFlowMeterPulse
    waterflow.o(i.UpdataFlowMeterWaterVolume) refers to dfltui.o(.text) for __aeabi_ui2d
    waterflow.o(i.UpdataFlowMeterWaterVolume) refers to dmul.o(.text) for __aeabi_dmul
    waterflow.o(i.UpdataFlowMeterWaterVolume) refers to d2f.o(.text) for __aeabi_d2f
    waterflow.o(i.UpdataFlowMeterWaterVolume) refers to fmul.o(.text) for __aeabi_fmul
    waterflow.o(i.UpdataFlowMeterWaterVolume) refers to ffixui.o(.text) for __aeabi_f2uiz
    waterflow.o(i.UpdataFlowMeterWaterVolume) refers to ffltui.o(.text) for __aeabi_ui2f
    waterflow.o(i.UpdataFlowMeterWaterVolume) refers to fadd.o(.text) for __aeabi_fadd
    waterflow.o(i.UpdataFlowMeterWaterVolume) refers to uread4.o(.text) for __aeabi_uread4
    waterflow.o(i.UpdataFlowMeterWaterVolume) refers to uwrite4.o(.text) for __aeabi_uwrite4
    waterflow.o(i.UpdataFlowMeterWaterVolume) refers to waterflow.o(.bss) for FlowMeter1st
    waterflow.o(i.UpdataFlowMeterWaterVolume) refers to appsystem.o(.bss) for systemseting
    waterflow.o(i.UpdataFlowMeterWaterVolume) refers to waterflow.o(.data) for delaytimes
    waterflow.o(i.intp_0_6_interrupt) refers to waterflow.o(i.INTC_GetPendingIRQ) for INTC_GetPendingIRQ
    waterflow.o(i.intp_0_6_interrupt) refers to waterflow.o(i.INTC_ClearPendingIRQ) for INTC_ClearPendingIRQ
    waterflow.o(i.intp_0_6_interrupt) refers to waterflow.o(.data) for SysTick1msD
    waterflow.o(i.intp_0_6_interrupt) refers to waterflow.o(.bss) for FlowMeter2nd
    pow.o(i.__softfp_pow) refers (Special) to iusefp.o(.text) for __I$use$fp
    pow.o(i.__softfp_pow) refers to pow.o(i.pow) for pow
    pow.o(i.pow) refers (Special) to iusefp.o(.text) for __I$use$fp
    pow.o(i.pow) refers to dunder.o(i.__mathlib_dbl_infnan2) for __mathlib_dbl_infnan2
    pow.o(i.pow) refers to errno.o(i.__set_errno) for __set_errno
    pow.o(i.pow) refers to dunder.o(i.__mathlib_dbl_divzero) for __mathlib_dbl_divzero
    pow.o(i.pow) refers to ddiv.o(.text) for __aeabi_ddiv
    pow.o(i.pow) refers to sqrt.o(i.sqrt) for sqrt
    pow.o(i.pow) refers to dflti.o(.text) for __aeabi_i2d
    pow.o(i.pow) refers to dunder.o(i.__mathlib_dbl_invalid) for __mathlib_dbl_invalid
    pow.o(i.pow) refers to dunder.o(i.__mathlib_dbl_overflow) for __mathlib_dbl_overflow
    pow.o(i.pow) refers to dmul.o(.text) for __aeabi_dmul
    pow.o(i.pow) refers to dunder.o(i.__mathlib_dbl_underflow) for __mathlib_dbl_underflow
    pow.o(i.pow) refers to dadd.o(.text) for __aeabi_dsub
    pow.o(i.pow) refers to dscalb.o(.text) for __ARM_scalbn
    pow.o(i.pow) refers to qnan.o(.constdata) for __mathlib_zero
    pow.o(i.pow) refers to poly.o(i.__kernel_poly) for __kernel_poly
    pow.o(i.pow) refers to cdrcmple.o(.text) for __aeabi_cdrcmple
    pow.o(i.pow) refers to pow.o(.constdata) for .constdata
    pow.o(i.pow) refers to fpclassify.o(i.__ARM_fpclassify) for __ARM_fpclassify
    pow.o(.constdata) refers (Special) to iusefp.o(.text) for __I$use$fp
    pow_x.o(i.____softfp_pow$lsc) refers (Special) to iusefp.o(.text) for __I$use$fp
    pow_x.o(i.____softfp_pow$lsc) refers to pow_x.o(i.__pow$lsc) for __pow$lsc
    pow_x.o(i.__pow$lsc) refers (Special) to iusefp.o(.text) for __I$use$fp
    pow_x.o(i.__pow$lsc) refers to dunder.o(i.__mathlib_dbl_infnan2) for __mathlib_dbl_infnan2
    pow_x.o(i.__pow$lsc) refers to errno.o(i.__set_errno) for __set_errno
    pow_x.o(i.__pow$lsc) refers to ddiv.o(.text) for __aeabi_ddiv
    pow_x.o(i.__pow$lsc) refers to sqrt.o(i.sqrt) for sqrt
    pow_x.o(i.__pow$lsc) refers to dflti.o(.text) for __aeabi_i2d
    pow_x.o(i.__pow$lsc) refers to dmul.o(.text) for __aeabi_dmul
    pow_x.o(i.__pow$lsc) refers to dadd.o(.text) for __aeabi_dsub
    pow_x.o(i.__pow$lsc) refers to dscalb.o(.text) for __ARM_scalbn
    pow_x.o(i.__pow$lsc) refers to qnan.o(.constdata) for __mathlib_zero
    pow_x.o(i.__pow$lsc) refers to poly.o(i.__kernel_poly) for __kernel_poly
    pow_x.o(i.__pow$lsc) refers to cdrcmple.o(.text) for __aeabi_cdrcmple
    pow_x.o(i.__pow$lsc) refers to pow_x.o(.constdata) for .constdata
    pow_x.o(.constdata) refers (Special) to iusefp.o(.text) for __I$use$fp
    entry.o(.ARM.Collect$$$$00000000) refers (Special) to entry10a.o(.ARM.Collect$$$$0000000F) for __rt_final_cpp
    entry.o(.ARM.Collect$$$$00000000) refers (Special) to entry11a.o(.ARM.Collect$$$$00000011) for __rt_final_exit
    entry.o(.ARM.Collect$$$$00000000) refers (Special) to entry12b.o(.ARM.Collect$$$$0000000E) for __rt_lib_shutdown_fini
    entry.o(.ARM.Collect$$$$00000000) refers (Special) to entry7b.o(.ARM.Collect$$$$00000008) for _main_clock
    entry.o(.ARM.Collect$$$$00000000) refers (Special) to entry8b.o(.ARM.Collect$$$$0000000A) for _main_cpp_init
    entry.o(.ARM.Collect$$$$00000000) refers (Special) to entry9a.o(.ARM.Collect$$$$0000000B) for _main_init
    entry.o(.ARM.Collect$$$$00000000) refers (Special) to entry5.o(.ARM.Collect$$$$00000004) for _main_scatterload
    entry.o(.ARM.Collect$$$$00000000) refers (Special) to entry2.o(.ARM.Collect$$$$00000001) for _main_stk
    idiv.o(.text) refers to uidiv.o(.text) for __aeabi_uidivmod
    printfa.o(i.__0fprintf) refers (Special) to iusefp.o(.text) for __I$use$fp
    printfa.o(i.__0fprintf) refers to printfa.o(i._printf_core) for _printf_core
    printfa.o(i.__0fprintf) refers to retarget.o(i.fputc) for fputc
    printfa.o(i.__0printf) refers (Special) to iusefp.o(.text) for __I$use$fp
    printfa.o(i.__0printf) refers to printfa.o(i._printf_core) for _printf_core
    printfa.o(i.__0printf) refers to retarget.o(i.fputc) for fputc
    printfa.o(i.__0printf) refers to retarget.o(.data) for __stdout
    printfa.o(i.__0snprintf) refers (Special) to iusefp.o(.text) for __I$use$fp
    printfa.o(i.__0snprintf) refers to printfa.o(i._printf_core) for _printf_core
    printfa.o(i.__0snprintf) refers to printfa.o(i._snputc) for _snputc
    printfa.o(i.__0sprintf) refers (Special) to iusefp.o(.text) for __I$use$fp
    printfa.o(i.__0sprintf) refers to printfa.o(i._printf_core) for _printf_core
    printfa.o(i.__0sprintf) refers to printfa.o(i._sputc) for _sputc
    printfa.o(i.__0vfprintf) refers (Special) to iusefp.o(.text) for __I$use$fp
    printfa.o(i.__0vfprintf) refers to printfa.o(i._printf_core) for _printf_core
    printfa.o(i.__0vfprintf) refers to retarget.o(i.fputc) for fputc
    printfa.o(i.__0vprintf) refers (Special) to iusefp.o(.text) for __I$use$fp
    printfa.o(i.__0vprintf) refers to printfa.o(i._printf_core) for _printf_core
    printfa.o(i.__0vprintf) refers to retarget.o(i.fputc) for fputc
    printfa.o(i.__0vprintf) refers to retarget.o(.data) for __stdout
    printfa.o(i.__0vsnprintf) refers (Special) to iusefp.o(.text) for __I$use$fp
    printfa.o(i.__0vsnprintf) refers to printfa.o(i._printf_core) for _printf_core
    printfa.o(i.__0vsnprintf) refers to printfa.o(i._snputc) for _snputc
    printfa.o(i.__0vsprintf) refers (Special) to iusefp.o(.text) for __I$use$fp
    printfa.o(i.__0vsprintf) refers to printfa.o(i._printf_core) for _printf_core
    printfa.o(i.__0vsprintf) refers to printfa.o(i._sputc) for _sputc
    printfa.o(i._fp_digits) refers (Special) to iusefp.o(.text) for __I$use$fp
    printfa.o(i._fp_digits) refers to dmul.o(.text) for __aeabi_dmul
    printfa.o(i._fp_digits) refers to ddiv.o(.text) for __aeabi_ddiv
    printfa.o(i._fp_digits) refers to cdrcmple.o(.text) for __aeabi_cdrcmple
    printfa.o(i._fp_digits) refers to dadd.o(.text) for __aeabi_dadd
    printfa.o(i._fp_digits) refers to dfixul.o(.text) for __aeabi_d2ulz
    printfa.o(i._fp_digits) refers to uldiv.o(.text) for __aeabi_uldivmod
    printfa.o(i._printf_core) refers (Special) to iusefp.o(.text) for __I$use$fp
    printfa.o(i._printf_core) refers to printfa.o(i._printf_pre_padding) for _printf_pre_padding
    printfa.o(i._printf_core) refers to uldiv.o(.text) for __aeabi_uldivmod
    printfa.o(i._printf_core) refers to printfa.o(i._printf_post_padding) for _printf_post_padding
    printfa.o(i._printf_core) refers to printfa.o(i._fp_digits) for _fp_digits
    printfa.o(i._printf_core) refers to uidiv.o(.text) for __aeabi_uidivmod
    printfa.o(i._printf_post_padding) refers (Special) to iusefp.o(.text) for __I$use$fp
    printfa.o(i._printf_pre_padding) refers (Special) to iusefp.o(.text) for __I$use$fp
    printfa.o(i._snputc) refers (Special) to iusefp.o(.text) for __I$use$fp
    printfa.o(i._sputc) refers (Special) to iusefp.o(.text) for __I$use$fp
    malloc.o(i.free) refers to mvars.o(.data) for __microlib_freelist
    malloc.o(i.malloc) refers to mvars.o(.data) for __microlib_freelist_initialised
    malloc.o(i.malloc) refers to mvars.o(.data) for __microlib_freelist
    malloc.o(i.malloc) refers to startup_bat32g137_1.o(HEAP) for __heap_base
    mallocr.o(i.__free$realloc) refers to mvars.o(.data) for __microlib_freelist
    mallocr.o(i.__malloc$realloc) refers to mallocr.o(i.internal_alloc) for internal_alloc
    mallocr.o(i.__malloc$realloc) refers to mvars.o(.data) for __microlib_freelist_initialised
    mallocr.o(i.__malloc$realloc) refers to startup_bat32g137_1.o(HEAP) for __heap_base
    mallocr.o(i.__malloc$realloc) refers to mvars.o(.data) for __microlib_freelist
    mallocr.o(i.internal_alloc) refers to memcpya.o(.text) for __aeabi_memcpy
    mallocr.o(i.internal_alloc) refers to mvars.o(.data) for __microlib_freelist
    mallocr.o(i.realloc) refers to mallocr.o(i.__free$realloc) for __free$realloc
    mallocr.o(i.realloc) refers to mallocr.o(i.internal_alloc) for internal_alloc
    mallocr.o(i.realloc) refers to mallocr.o(i.__malloc$realloc) for __malloc$realloc
    mallocr.o(i.realloc) refers to mvars.o(.data) for __microlib_freelist
    malloca.o(i.__aligned_malloc) refers to mvars.o(.data) for __microlib_freelist
    malloca.o(i.__aligned_malloc) refers to mvars.o(.data) for __microlib_freelist_initialised
    malloca.o(i.__aligned_malloc) refers to startup_bat32g137_1.o(HEAP) for __heap_base
    malloca.o(i.__free$memalign) refers to mvars.o(.data) for __microlib_freelist
    malloca.o(i.__malloc$memalign) refers to malloca.o(i.__aligned_malloc) for __aligned_malloc
    mallocra.o(i.__aligned_malloc$realloc) refers to mallocra.o(i.internal_alloc) for internal_alloc
    mallocra.o(i.__aligned_malloc$realloc) refers to startup_bat32g137_1.o(HEAP) for __heap_base
    mallocra.o(i.__aligned_malloc$realloc) refers to mvars.o(.data) for __microlib_freelist
    mallocra.o(i.__aligned_malloc$realloc) refers to mvars.o(.data) for __microlib_freelist_initialised
    mallocra.o(i.__free$realloc$memalign) refers to mvars.o(.data) for __microlib_freelist
    mallocra.o(i.__malloc$realloc$memalign) refers to mallocra.o(i.__aligned_malloc$realloc) for __aligned_malloc$realloc
    mallocra.o(i.__realloc$memalign) refers to mallocra.o(i.__free$realloc$memalign) for __free$realloc$memalign
    mallocra.o(i.__realloc$memalign) refers to mallocra.o(i.internal_alloc) for internal_alloc
    mallocra.o(i.__realloc$memalign) refers to mallocra.o(i.__malloc$realloc$memalign) for __malloc$realloc$memalign
    mallocra.o(i.__realloc$memalign) refers to mvars.o(.data) for __microlib_freelist
    mallocra.o(i.internal_alloc) refers to memcpya.o(.text) for __aeabi_memcpy
    mallocra.o(i.internal_alloc) refers to mvars.o(.data) for __microlib_freelist
    __0sscanf.o(.text) refers to scanf_char.o(.text) for __vfscanf_char
    __0sscanf.o(.text) refers to _sgetc.o(.text) for _sgetc
    _scanf_int.o(.text) refers to _chval.o(.text) for _chval
    fadd.o(.text) refers (Special) to iusefp.o(.text) for __I$use$fp
    fadd.o(.text) refers to fepilogue.o(.text) for _float_epilogue
    fmul.o(.text) refers (Special) to iusefp.o(.text) for __I$use$fp
    fdiv.o(.text) refers (Special) to iusefp.o(.text) for __I$use$fp
    fdiv.o(.text) refers to fepilogue.o(.text) for _float_round
    dadd.o(.text) refers (Special) to iusefp.o(.text) for __I$use$fp
    dadd.o(.text) refers to llshl.o(.text) for __aeabi_llsl
    dadd.o(.text) refers to llsshr.o(.text) for __aeabi_lasr
    dadd.o(.text) refers to depilogue.o(.text) for _double_epilogue
    dmul.o(.text) refers (Special) to iusefp.o(.text) for __I$use$fp
    dmul.o(.text) refers to depilogue.o(.text) for _double_epilogue
    ddiv.o(.text) refers (Special) to iusefp.o(.text) for __I$use$fp
    ddiv.o(.text) refers to depilogue.o(.text) for _double_round
    ffltui.o(.text) refers (Special) to iusefp.o(.text) for __I$use$fp
    ffltui.o(.text) refers to fepilogue.o(.text) for _float_epilogue
    dflti.o(.text) refers (Special) to iusefp.o(.text) for __I$use$fp
    dflti.o(.text) refers to depilogue.o(.text) for _double_epilogue
    dfltui.o(.text) refers (Special) to iusefp.o(.text) for __I$use$fp
    dfltui.o(.text) refers to depilogue.o(.text) for _double_epilogue
    ffixi.o(.text) refers (Special) to iusefp.o(.text) for __I$use$fp
    ffixui.o(.text) refers (Special) to iusefp.o(.text) for __I$use$fp
    dfixi.o(.text) refers (Special) to iusefp.o(.text) for __I$use$fp
    dfixi.o(.text) refers to llushr.o(.text) for __aeabi_llsr
    f2d.o(.text) refers (Special) to iusefp.o(.text) for __I$use$fp
    cdcmple.o(.text) refers (Special) to iusefp.o(.text) for __I$use$fp
    cdrcmple.o(.text) refers (Special) to iusefp.o(.text) for __I$use$fp
    d2f.o(.text) refers (Special) to iusefp.o(.text) for __I$use$fp
    d2f.o(.text) refers to fepilogue.o(.text) for _float_round
    dunder.o(i.__mathlib_dbl_divzero) refers to ddiv.o(.text) for __aeabi_ddiv
    dunder.o(i.__mathlib_dbl_infnan) refers to dscalb.o(.text) for __ARM_scalbn
    dunder.o(i.__mathlib_dbl_infnan2) refers to dadd.o(.text) for __aeabi_dadd
    dunder.o(i.__mathlib_dbl_invalid) refers to ddiv.o(.text) for __aeabi_ddiv
    dunder.o(i.__mathlib_dbl_overflow) refers to dscalb.o(.text) for __ARM_scalbn
    dunder.o(i.__mathlib_dbl_posinfnan) refers to dmul.o(.text) for __aeabi_dmul
    dunder.o(i.__mathlib_dbl_underflow) refers to dscalb.o(.text) for __ARM_scalbn
    fpclassify.o(i.__ARM_fpclassify) refers (Special) to iusefp.o(.text) for __I$use$fp
    poly.o(i.__kernel_poly) refers (Special) to iusefp.o(.text) for __I$use$fp
    poly.o(i.__kernel_poly) refers to dmul.o(.text) for __aeabi_dmul
    poly.o(i.__kernel_poly) refers to dadd.o(.text) for __aeabi_dadd
    qnan.o(.constdata) refers (Special) to iusefp.o(.text) for __I$use$fp
    sqrt.o(i.__softfp_sqrt) refers (Special) to iusefp.o(.text) for __I$use$fp
    sqrt.o(i.__softfp_sqrt) refers to dsqrt.o(.text) for _dsqrt
    sqrt.o(i.__softfp_sqrt) refers to errno.o(i.__set_errno) for __set_errno
    sqrt.o(i.sqrt) refers (Special) to iusefp.o(.text) for __I$use$fp
    sqrt.o(i.sqrt) refers to dsqrt.o(.text) for _dsqrt
    sqrt.o(i.sqrt) refers to errno.o(i.__set_errno) for __set_errno
    sqrt_x.o(i.____softfp_sqrt$lsc) refers (Special) to iusefp.o(.text) for __I$use$fp
    sqrt_x.o(i.____softfp_sqrt$lsc) refers to cdcmple.o(.text) for __aeabi_cdcmple
    sqrt_x.o(i.____softfp_sqrt$lsc) refers to errno.o(i.__set_errno) for __set_errno
    sqrt_x.o(i.____softfp_sqrt$lsc) refers to dsqrt.o(.text) for _dsqrt
    sqrt_x.o(i.__sqrt$lsc) refers (Special) to iusefp.o(.text) for __I$use$fp
    sqrt_x.o(i.__sqrt$lsc) refers to cdcmple.o(.text) for __aeabi_cdcmple
    sqrt_x.o(i.__sqrt$lsc) refers to errno.o(i.__set_errno) for __set_errno
    sqrt_x.o(i.__sqrt$lsc) refers to dsqrt.o(.text) for _dsqrt
    entry2.o(.ARM.Collect$$$$00000001) refers to entry2.o(.ARM.Collect$$$$00002712) for __lit__00000000
    entry2.o(.ARM.Collect$$$$00002712) refers to startup_bat32g137_1.o(STACK) for __initial_sp
    entry2.o(__vectab_stack_and_reset_area) refers to startup_bat32g137_1.o(STACK) for __initial_sp
    entry2.o(__vectab_stack_and_reset_area) refers to entry.o(.ARM.Collect$$$$00000000) for __main
    entry5.o(.ARM.Collect$$$$00000004) refers to init.o(.text) for __scatterload
    entry9a.o(.ARM.Collect$$$$0000000B) refers to main.o(i.main) for main
    entry9b.o(.ARM.Collect$$$$0000000C) refers to main.o(i.main) for main
    uldiv.o(.text) refers to llushr.o(.text) for __aeabi_llsr
    uldiv.o(.text) refers to llshl.o(.text) for __aeabi_llsl
    errno.o(i.__aeabi_errno_addr) refers to errno.o(.data) for .data
    errno.o(i.__read_errno) refers to errno.o(.data) for .data
    errno.o(i.__set_errno) refers to errno.o(.data) for .data
    scanf_char.o(.text) refers to _scanf.o(.text) for __vfscanf
    scanf_char.o(.text) refers to isspace_c.o(.text) for isspace
    depilogue.o(.text) refers to depilogue.o(i.__ARM_clz) for __ARM_clz
    depilogue.o(.text) refers to llshl.o(.text) for __aeabi_llsl
    depilogue.o(.text) refers to llushr.o(.text) for __aeabi_llsr
    dfixul.o(.text) refers to llushr.o(.text) for __aeabi_llsr
    dfixul.o(.text) refers to llshl.o(.text) for __aeabi_llsl
    init.o(.text) refers to entry5.o(.ARM.Collect$$$$00000004) for __main_after_scatterload
    isspace_c.o(.text) refers to ctype_c.o(.text) for __ctype_lookup
    _scanf.o(.text) refers (Weak) to _scanf_int.o(.text) for _scanf_int
    dsqrt.o(.text) refers to llushr.o(.text) for __aeabi_llsr
    dsqrt.o(.text) refers to depilogue.o(.text) for _double_round
    ctype_c.o(.text) refers to ctype_c.o(.constdata) for .constdata


==============================================================================

Removing Unused input sections from the image.

    Removing system_bat32g137.o(.rev16_text), (4 bytes).
    Removing system_bat32g137.o(.revsh_text), (4 bytes).
    Removing system_bat32g137.o(i.CLK_GetHocoFreq), (64 bytes).
    Removing adc.o(.rev16_text), (4 bytes).
    Removing adc.o(.revsh_text), (4 bytes).
    Removing adc.o(i.ADC_MidAvg_Filter), (116 bytes).
    Removing adc.o(i.ADC_SelfTest), (152 bytes).
    Removing adc.o(i.ADC_Set_Clock), (36 bytes).
    Removing adc.o(i.ADC_Set_HardTrigger), (52 bytes).
    Removing adc.o(i.ADC_Set_OperationOff), (20 bytes).
    Removing adc.o(i.ADC_Set_OperationOn), (20 bytes).
    Removing adc.o(i.ADC_Set_RefVoltage), (60 bytes).
    Removing adc.o(i.ADC_Start1), (108 bytes).
    Removing adc.o(i.ADC_Stop), (32 bytes).
    Removing gpio.o(.rev16_text), (4 bytes).
    Removing gpio.o(.revsh_text), (4 bytes).
    Removing gpio.o(i.GPIO_Get_Value), (6 bytes).
    Removing gpio.o(i.GPIO_Input_Enable), (32 bytes).
    Removing gpio.o(i.GPIO_Nch_OpenDrain), (20 bytes).
    Removing gpio.o(i.GPIO_Output_Enable), (32 bytes).
    Removing gpio.o(i.GPIO_PullUp_Disable), (20 bytes).
    Removing gpio.o(i.GPIO_PullUp_Enable), (20 bytes).
    Removing gpio.o(i.GPIO_Set_Value), (4 bytes).
    Removing gpio.o(i.GPIO_Ttl_Input), (20 bytes).
    Removing gpio.o(i.PORT_GetValue), (20 bytes).
    Removing gpio.o(i.PORT_ToggleBit), (36 bytes).
    Removing sci.o(.rev16_text), (4 bytes).
    Removing sci.o(.revsh_text), (4 bytes).
    Removing sci.o(i.IIC00_Init), (208 bytes).
    Removing sci.o(i.IIC00_MasterReceive), (124 bytes).
    Removing sci.o(i.IIC00_MasterSend), (112 bytes).
    Removing sci.o(i.IIC00_StartCondition), (88 bytes).
    Removing sci.o(i.IIC00_Stop), (32 bytes).
    Removing sci.o(i.IIC00_StopCondition), (108 bytes).
    Removing sci.o(i.IIC01_Init), (172 bytes).
    Removing sci.o(i.IIC01_MasterReceive), (116 bytes).
    Removing sci.o(i.IIC01_MasterSend), (104 bytes).
    Removing sci.o(i.IIC01_StartCondition), (92 bytes).
    Removing sci.o(i.IIC01_Stop), (32 bytes).
    Removing sci.o(i.IIC01_StopCondition), (100 bytes).
    Removing sci.o(i.IIC10_Init), (212 bytes).
    Removing sci.o(i.IIC10_MasterReceive), (124 bytes).
    Removing sci.o(i.IIC10_MasterSend), (112 bytes).
    Removing sci.o(i.IIC10_StartCondition), (92 bytes).
    Removing sci.o(i.IIC10_Stop), (32 bytes).
    Removing sci.o(i.IIC10_StopCondition), (108 bytes).
    Removing sci.o(i.IIC11_Init), (216 bytes).
    Removing sci.o(i.IIC11_MasterReceive), (116 bytes).
    Removing sci.o(i.IIC11_MasterSend), (104 bytes).
    Removing sci.o(i.IIC11_StartCondition), (92 bytes).
    Removing sci.o(i.IIC11_Stop), (32 bytes).
    Removing sci.o(i.IIC11_StopCondition), (100 bytes).
    Removing sci.o(i.IIC20_Init), (208 bytes).
    Removing sci.o(i.IIC20_MasterReceive), (124 bytes).
    Removing sci.o(i.IIC20_MasterSend), (112 bytes).
    Removing sci.o(i.IIC20_StartCondition), (88 bytes).
    Removing sci.o(i.IIC20_Stop), (32 bytes).
    Removing sci.o(i.IIC20_StopCondition), (108 bytes).
    Removing sci.o(i.IIC21_Init), (172 bytes).
    Removing sci.o(i.IIC21_MasterReceive), (116 bytes).
    Removing sci.o(i.IIC21_MasterSend), (104 bytes).
    Removing sci.o(i.IIC21_StartCondition), (92 bytes).
    Removing sci.o(i.IIC21_Stop), (32 bytes).
    Removing sci.o(i.IIC21_StopCondition), (100 bytes).
    Removing sci.o(i.INTC_GetPendingIRQ), (68 bytes).
    Removing sci.o(i.SPI00_MasterInit), (336 bytes).
    Removing sci.o(i.SPI00_MasterReceive), (216 bytes).
    Removing sci.o(i.SPI00_MasterSend), (200 bytes).
    Removing sci.o(i.SPI00_MasterSendReceive), (240 bytes).
    Removing sci.o(i.SPI00_SlaveInit), (244 bytes).
    Removing sci.o(i.SPI00_SlaveReceive), (164 bytes).
    Removing sci.o(i.SPI00_SlaveSend), (196 bytes).
    Removing sci.o(i.SPI00_Start), (76 bytes).
    Removing sci.o(i.SPI00_Stop), (80 bytes).
    Removing sci.o(i.SPI01_MasterInit), (284 bytes).
    Removing sci.o(i.SPI01_MasterReceive), (88 bytes).
    Removing sci.o(i.SPI01_MasterSend), (104 bytes).
    Removing sci.o(i.SPI01_SlaveInit), (168 bytes).
    Removing sci.o(i.SPI01_SlaveReceive), (88 bytes).
    Removing sci.o(i.SPI01_SlaveSend), (104 bytes).
    Removing sci.o(i.SPI01_SlaveSendReceive), (108 bytes).
    Removing sci.o(i.SPI01_Start), (76 bytes).
    Removing sci.o(i.SPI01_Stop), (80 bytes).
    Removing sci.o(i.SPI10_MasterInit), (364 bytes).
    Removing sci.o(i.SPI10_MasterReceive), (228 bytes).
    Removing sci.o(i.SPI10_MasterSend), (196 bytes).
    Removing sci.o(i.SPI10_MasterSendReceive), (248 bytes).
    Removing sci.o(i.SPI10_SlaveInit), (224 bytes).
    Removing sci.o(i.SPI10_SlaveReceive), (164 bytes).
    Removing sci.o(i.SPI10_SlaveSend), (192 bytes).
    Removing sci.o(i.SPI10_Start), (76 bytes).
    Removing sci.o(i.SPI10_Stop), (80 bytes).
    Removing sci.o(i.SPI11_MasterInit), (364 bytes).
    Removing sci.o(i.SPI11_MasterReceive), (236 bytes).
    Removing sci.o(i.SPI11_MasterSend), (200 bytes).
    Removing sci.o(i.SPI11_SlaveInit), (224 bytes).
    Removing sci.o(i.SPI11_SlaveReceive), (168 bytes).
    Removing sci.o(i.SPI11_SlaveSend), (200 bytes).
    Removing sci.o(i.SPI11_SlaveSendReceive), (236 bytes).
    Removing sci.o(i.SPI11_Start), (76 bytes).
    Removing sci.o(i.SPI11_Stop), (80 bytes).
    Removing sci.o(i.SPI20_MasterInit), (352 bytes).
    Removing sci.o(i.SPI20_MasterReceive), (72 bytes).
    Removing sci.o(i.SPI20_MasterSend), (68 bytes).
    Removing sci.o(i.SPI20_Start), (64 bytes).
    Removing sci.o(i.SPI20_Stop), (68 bytes).
    Removing sci.o(i.SPI21_MasterInit), (284 bytes).
    Removing sci.o(i.SPI21_MasterReceive), (88 bytes).
    Removing sci.o(i.SPI21_MasterSend), (108 bytes).
    Removing sci.o(i.SPI21_MasterSendReceive), (112 bytes).
    Removing sci.o(i.SPI21_SlaveInit), (184 bytes).
    Removing sci.o(i.SPI21_SlaveReceive), (88 bytes).
    Removing sci.o(i.SPI21_SlaveSend), (104 bytes).
    Removing sci.o(i.SPI21_Start), (64 bytes).
    Removing sci.o(i.SPI21_Stop), (68 bytes).
    Removing sci.o(i.UART0_Receive), (28 bytes).
    Removing sci.o(i.UART0_Send), (28 bytes).
    Removing sci.o(i.UART0_Stop), (60 bytes).
    Removing sci.o(i.UART1_BaudRate), (80 bytes).
    Removing sci.o(i.UART1_Init), (308 bytes).
    Removing sci.o(i.UART1_Receive), (44 bytes).
    Removing sci.o(i.UART1_Send), (68 bytes).
    Removing sci.o(i.UART1_Start), (80 bytes).
    Removing sci.o(i.UART1_Stop), (60 bytes).
    Removing sci.o(i.UART2_Receive), (44 bytes).
    Removing sci.o(i.UART2_Send), (68 bytes).
    Removing sci.o(i.UART2_Stop), (60 bytes).
    Removing sci.o(.data), (275 bytes).
    Removing flash.o(.rev16_text), (4 bytes).
    Removing flash.o(.revsh_text), (4 bytes).
    Removing wdt.o(.rev16_text), (4 bytes).
    Removing wdt.o(.revsh_text), (4 bytes).
    Removing tima.o(.rev16_text), (4 bytes).
    Removing tima.o(.revsh_text), (4 bytes).
    Removing tima.o(i.INTC_ClearPendingIRQ), (68 bytes).
    Removing tima.o(i.INTC_DisableIRQ), (64 bytes).
    Removing tima.o(i.TMA0_EventCount), (680 bytes).
    Removing tima.o(i.TMA0_Get_PulsePeriod), (252 bytes).
    Removing tima.o(i.TMA0_Get_PulseWidth), (216 bytes).
    Removing tima.o(i.TMA0_IntervalTimer), (80 bytes).
    Removing tima.o(i.TMA0_Set_PowerOff), (20 bytes).
    Removing tima.o(i.TMA0_SquareOutput), (156 bytes).
    Removing tima.o(i.TMA0_Start), (92 bytes).
    Removing tima.o(i.TMA0_Stop), (32 bytes).
    Removing tima.o(.data), (4 bytes).
    Removing retarget.o(.rev16_text), (4 bytes).
    Removing retarget.o(.revsh_text), (4 bytes).
    Removing retarget.o(i._sys_exit), (32 bytes).
    Removing retarget.o(i._ttywrch), (12 bytes).
    Removing retarget.o(i.ferror), (8 bytes).
    Removing retarget.o(i.fgetc), (36 bytes).
    Removing retarget.o(i.fputc), (26 bytes).
    Removing retarget.o(.data), (8 bytes).
    Removing intp.o(.rev16_text), (4 bytes).
    Removing intp.o(.revsh_text), (4 bytes).
    Removing intp.o(i.INTP_Stop), (162 bytes).
    Removing intp.o(i.__NVIC_DisableIRQ), (32 bytes).
    Removing appuart.o(.rev16_text), (4 bytes).
    Removing appuart.o(.revsh_text), (4 bytes).
    Removing appuart.o(i.GetDisplayData), (92 bytes).
    Removing appuart.o(i.UartDisInfo), (2 bytes).
    Removing appuart.o(i.UartInit), (2 bytes).
    Removing appuart.o(i.UartSendString), (6 bytes).
    Removing appuart.o(i.uart_printf1), (52 bytes).
    Removing delay.o(.rev16_text), (4 bytes).
    Removing delay.o(.revsh_text), (4 bytes).
    Removing fifo.o(.rev16_text), (4 bytes).
    Removing fifo.o(.revsh_text), (4 bytes).
    Removing fifo.o(i.GetCMD), (6 bytes).
    Removing fifo.o(i.GetCmdLen), (38 bytes).
    Removing fifo.o(i.Uart_data_handle), (38 bytes).
    Removing fifo.o(i.fifo_append_one), (72 bytes).
    Removing fifo.o(i.fifo_clean_all), (16 bytes).
    Removing fifo.o(i.fifo_empty), (20 bytes).
    Removing fifo.o(i.fifo_get_size), (12 bytes).
    Removing fifo.o(i.fifo_is_full), (20 bytes).
    Removing fifo.o(i.fifo_pop), (60 bytes).
    Removing fifo.o(i.fifo_read_strings), (72 bytes).
    Removing fifo.o(.data), (4 bytes).
    Removing ioinit.o(.rev16_text), (4 bytes).
    Removing ioinit.o(.revsh_text), (4 bytes).
    Removing sys_clock.o(.rev16_text), (4 bytes).
    Removing sys_clock.o(.revsh_text), (4 bytes).
    Removing system.o(.rev16_text), (4 bytes).
    Removing system.o(.revsh_text), (4 bytes).
    Removing system.o(i.GetMCUInfor), (80 bytes).
    Removing system.o(i.GetSoftVersion), (28 bytes).
    Removing system.o(i.SendHGPriotityMessage), (48 bytes).
    Removing system.o(i.TimerStart), (92 bytes).
    Removing system.o(.constdata), (200 bytes).
    Removing system.o(.conststring), (105 bytes).
    Removing task.o(.rev16_text), (4 bytes).
    Removing task.o(.revsh_text), (4 bytes).
    Removing window.o(.rev16_text), (4 bytes).
    Removing window.o(.revsh_text), (4 bytes).
    Removing window.o(i.GetActiveWindow), (12 bytes).
    Removing window.o(i.GetCursorPos), (28 bytes).
    Removing window.o(i.GetParent), (12 bytes).
    Removing window.o(i.SetCursorPos), (24 bytes).
    Removing keyscan.o(.rev16_text), (4 bytes).
    Removing keyscan.o(.revsh_text), (4 bytes).
    Removing keyscan.o(i.keydownhandle), (176 bytes).
    Removing winfilterset.o(.rev16_text), (4 bytes).
    Removing winfilterset.o(.revsh_text), (4 bytes).
    Removing winfilterset.o(i.GetFilterSetWin), (8 bytes).
    Removing windesktop.o(.rev16_text), (4 bytes).
    Removing windesktop.o(.revsh_text), (4 bytes).
    Removing windesktop.o(i.FilterFastInspection), (152 bytes).
    Removing windesktop.o(i.GetDesktopWin), (8 bytes).
    Removing windesktop.o(i.PowerDwon), (2 bytes).
    Removing drvadc.o(.rev16_text), (4 bytes).
    Removing drvadc.o(.revsh_text), (4 bytes).
    Removing drvadc.o(i.ADC1SingleChannelInit), (2 bytes).
    Removing drvadc.o(i.ADCTriggerConvertion), (2 bytes).
    Removing drvadc.o(i.ADCUseChannel), (2 bytes).
    Removing drvleak.o(.rev16_text), (4 bytes).
    Removing drvleak.o(.revsh_text), (4 bytes).
    Removing drvtds.o(.rev16_text), (4 bytes).
    Removing drvtds.o(.revsh_text), (4 bytes).
    Removing drvvalve.o(.rev16_text), (4 bytes).
    Removing drvvalve.o(.revsh_text), (4 bytes).
    Removing drvvalve.o(i.MonitorValve), (2 bytes).
    Removing drvi2c.o(.rev16_text), (4 bytes).
    Removing drvi2c.o(.revsh_text), (4 bytes).
    Removing drvi2c.o(i.I2C_ReadOneByte), (36 bytes).
    Removing drvi2c.o(i.I2C_WriteByte), (34 bytes).
    Removing main.o(.rev16_text), (4 bytes).
    Removing main.o(.revsh_text), (4 bytes).
    Removing main.o(i.FeedWDT), (2 bytes).
    Removing main.o(i.StartWDT), (2 bytes).
    Removing appsystem.o(.rev16_text), (4 bytes).
    Removing appsystem.o(.revsh_text), (4 bytes).
    Removing appsystem.o(i.SendDisplayMsg), (122 bytes).
    Removing appsystem.o(.constdata), (11 bytes).
    Removing savedata.o(.rev16_text), (4 bytes).
    Removing savedata.o(.revsh_text), (4 bytes).
    Removing appadc.o(.rev16_text), (4 bytes).
    Removing appadc.o(.revsh_text), (4 bytes).
    Removing appadc.o(i.AppADCSetProc), (28 bytes).
    Removing factorymode.o(.rev16_text), (4 bytes).
    Removing factorymode.o(.revsh_text), (4 bytes).
    Removing faucet.o(.rev16_text), (4 bytes).
    Removing faucet.o(.revsh_text), (4 bytes).
    Removing modbus.o(.rev16_text), (4 bytes).
    Removing modbus.o(.revsh_text), (4 bytes).
    Removing sim_eeprom.o(.rev16_text), (4 bytes).
    Removing sim_eeprom.o(.revsh_text), (4 bytes).
    Removing fct.o(.rev16_text), (4 bytes).
    Removing fct.o(.revsh_text), (4 bytes).
    Removing wifi.o(.rev16_text), (4 bytes).
    Removing wifi.o(.revsh_text), (4 bytes).
    Removing wifi.o(i.EQUI_ClearWifiConfig), (20 bytes).
    Removing waterflow.o(.rev16_text), (4 bytes).
    Removing waterflow.o(.revsh_text), (4 bytes).
    Removing waterflow.o(i.ResetFlowMeterParam), (60 bytes).
    Removing dfixul.o(.text), (64 bytes).

256 unused section(s) (total 18331 bytes) removed from the image.

==============================================================================

Image Symbol Table

    Local Symbols

    Symbol Name                              Value     Ov Type        Size  Object(Section)

    RESET                                    0x00000000   Section      192  startup_bat32g137_1.o(RESET)
    ../clib/../cmprslib/zerorunl2.c          0x00000000   Number         0  __dczerorl2.o ABSOLUTE
    ../clib/microlib/ctype/ctype.c           0x00000000   Number         0  isspace_c.o ABSOLUTE
    ../clib/microlib/ctype/ctype.c           0x00000000   Number         0  ctype_c.o ABSOLUTE
    ../clib/microlib/division.c              0x00000000   Number         0  uidiv.o ABSOLUTE
    ../clib/microlib/division.c              0x00000000   Number         0  idiv.o ABSOLUTE
    ../clib/microlib/division.c              0x00000000   Number         0  uldiv.o ABSOLUTE
    ../clib/microlib/errno.c                 0x00000000   Number         0  errno.o ABSOLUTE
    ../clib/microlib/init/entry.s            0x00000000   Number         0  entry9a.o ABSOLUTE
    ../clib/microlib/init/entry.s            0x00000000   Number         0  entry8b.o ABSOLUTE
    ../clib/microlib/init/entry.s            0x00000000   Number         0  entry8a.o ABSOLUTE
    ../clib/microlib/init/entry.s            0x00000000   Number         0  entry7b.o ABSOLUTE
    ../clib/microlib/init/entry.s            0x00000000   Number         0  entry7a.o ABSOLUTE
    ../clib/microlib/init/entry.s            0x00000000   Number         0  entry2.o ABSOLUTE
    ../clib/microlib/init/entry.s            0x00000000   Number         0  entry11b.o ABSOLUTE
    ../clib/microlib/init/entry.s            0x00000000   Number         0  entry5.o ABSOLUTE
    ../clib/microlib/init/entry.s            0x00000000   Number         0  entry12b.o ABSOLUTE
    ../clib/microlib/init/entry.s            0x00000000   Number         0  entry12a.o ABSOLUTE
    ../clib/microlib/init/entry.s            0x00000000   Number         0  entry11a.o ABSOLUTE
    ../clib/microlib/init/entry.s            0x00000000   Number         0  entry10b.o ABSOLUTE
    ../clib/microlib/init/entry.s            0x00000000   Number         0  entry10a.o ABSOLUTE
    ../clib/microlib/init/entry.s            0x00000000   Number         0  entry.o ABSOLUTE
    ../clib/microlib/init/entry.s            0x00000000   Number         0  entry9b.o ABSOLUTE
    ../clib/microlib/longlong.c              0x00000000   Number         0  llsshr.o ABSOLUTE
    ../clib/microlib/longlong.c              0x00000000   Number         0  llushr.o ABSOLUTE
    ../clib/microlib/longlong.c              0x00000000   Number         0  llshl.o ABSOLUTE
    ../clib/microlib/malloc/malloc.c         0x00000000   Number         0  mallocr.o ABSOLUTE
    ../clib/microlib/malloc/malloc.c         0x00000000   Number         0  malloc.o ABSOLUTE
    ../clib/microlib/malloc/malloc.c         0x00000000   Number         0  mallocra.o ABSOLUTE
    ../clib/microlib/malloc/malloc.c         0x00000000   Number         0  malloca.o ABSOLUTE
    ../clib/microlib/malloc/mvars.c          0x00000000   Number         0  mvars.o ABSOLUTE
    ../clib/microlib/printf/printf.c         0x00000000   Number         0  printfa.o ABSOLUTE
    ../clib/microlib/printf/stubs.s          0x00000000   Number         0  stubs.o ABSOLUTE
    ../clib/microlib/string/memcpy.c         0x00000000   Number         0  memcpyb.o ABSOLUTE
    ../clib/microlib/string/memcpy.c         0x00000000   Number         0  memcpya.o ABSOLUTE
    ../clib/microlib/string/memset.c         0x00000000   Number         0  memseta.o ABSOLUTE
    ../clib/microlib/string/strcat.c         0x00000000   Number         0  strcat.o ABSOLUTE
    ../clib/microlib/string/strcpy.c         0x00000000   Number         0  strcpy.o ABSOLUTE
    ../clib/microlib/string/strlen.c         0x00000000   Number         0  strlen.o ABSOLUTE
    ../clib/microlib/string/strstr.c         0x00000000   Number         0  strstr.o ABSOLUTE
    ../clib/microlib/stubs.s                 0x00000000   Number         0  iusefp.o ABSOLUTE
    ../clib/microlib/unhosted.c              0x00000000   Number         0  uread4.o ABSOLUTE
    ../clib/microlib/unhosted.c              0x00000000   Number         0  uwrite4.o ABSOLUTE
    ../clib/scanf.c                          0x00000000   Number         0  _sgetc.o ABSOLUTE
    ../clib/scanf.c                          0x00000000   Number         0  scanf_char.o ABSOLUTE
    ../clib/scanf.c                          0x00000000   Number         0  _chval.o ABSOLUTE
    ../clib/scanf.c                          0x00000000   Number         0  _scanf_int.o ABSOLUTE
    ../clib/scanf.c                          0x00000000   Number         0  __0sscanf.o ABSOLUTE
    ../clib/scanf.c                          0x00000000   Number         0  _scanf.o ABSOLUTE
    ../fplib/microlib/d2f.c                  0x00000000   Number         0  d2f.o ABSOLUTE
    ../fplib/microlib/f2d.c                  0x00000000   Number         0  f2d.o ABSOLUTE
    ../fplib/microlib/fpadd.c                0x00000000   Number         0  dadd.o ABSOLUTE
    ../fplib/microlib/fpadd.c                0x00000000   Number         0  fadd.o ABSOLUTE
    ../fplib/microlib/fpdiv.c                0x00000000   Number         0  ddiv.o ABSOLUTE
    ../fplib/microlib/fpdiv.c                0x00000000   Number         0  fdiv.o ABSOLUTE
    ../fplib/microlib/fpepilogue.c           0x00000000   Number         0  depilogue.o ABSOLUTE
    ../fplib/microlib/fpepilogue.c           0x00000000   Number         0  fepilogue.o ABSOLUTE
    ../fplib/microlib/fpfix.c                0x00000000   Number         0  ffixi.o ABSOLUTE
    ../fplib/microlib/fpfix.c                0x00000000   Number         0  dfixi.o ABSOLUTE
    ../fplib/microlib/fpfix.c                0x00000000   Number         0  dfixul.o ABSOLUTE
    ../fplib/microlib/fpfix.c                0x00000000   Number         0  ffixui.o ABSOLUTE
    ../fplib/microlib/fpflt.c                0x00000000   Number         0  dfltui.o ABSOLUTE
    ../fplib/microlib/fpflt.c                0x00000000   Number         0  ffltui.o ABSOLUTE
    ../fplib/microlib/fpflt.c                0x00000000   Number         0  dflti.o ABSOLUTE
    ../fplib/microlib/fpmul.c                0x00000000   Number         0  fmul.o ABSOLUTE
    ../fplib/microlib/fpmul.c                0x00000000   Number         0  dmul.o ABSOLUTE
    ../fplib/microlib/fpscalb.c              0x00000000   Number         0  dscalb.o ABSOLUTE
    ../fplib/microlib/fpsqrt.c               0x00000000   Number         0  dsqrt.o ABSOLUTE
    ../mathlib/dunder.c                      0x00000000   Number         0  dunder.o ABSOLUTE
    ../mathlib/fpclassify.c                  0x00000000   Number         0  fpclassify.o ABSOLUTE
    ../mathlib/poly.c                        0x00000000   Number         0  poly.o ABSOLUTE
    ../mathlib/pow.c                         0x00000000   Number         0  pow.o ABSOLUTE
    ../mathlib/pow.c                         0x00000000   Number         0  pow_x.o ABSOLUTE
    ../mathlib/qnan.c                        0x00000000   Number         0  qnan.o ABSOLUTE
    ../mathlib/sqrt.c                        0x00000000   Number         0  sqrt_x.o ABSOLUTE
    ../mathlib/sqrt.c                        0x00000000   Number         0  sqrt.o ABSOLUTE
    ..\Library\CMSIS\Source\ARM\startup_BAT32G137.s 0x00000000   Number         0  startup_bat32g137_1.o ABSOLUTE
    ..\Library\CMSIS\Source\system_BAT32G137.c 0x00000000   Number         0  system_bat32g137.o ABSOLUTE
    ..\Library\Driver\src\adc.c              0x00000000   Number         0  adc.o ABSOLUTE
    ..\Library\Driver\src\flash.c            0x00000000   Number         0  flash.o ABSOLUTE
    ..\Library\Driver\src\gpio.c             0x00000000   Number         0  gpio.o ABSOLUTE
    ..\Library\Driver\src\intp.c             0x00000000   Number         0  intp.o ABSOLUTE
    ..\Library\Driver\src\retarget.c         0x00000000   Number         0  retarget.o ABSOLUTE
    ..\Library\Driver\src\sci.c              0x00000000   Number         0  sci.o ABSOLUTE
    ..\Library\Driver\src\tima.c             0x00000000   Number         0  tima.o ABSOLUTE
    ..\Library\Driver\src\wdt.c              0x00000000   Number         0  wdt.o ABSOLUTE
    ..\\Library\\CMSIS\\Source\\system_BAT32G137.c 0x00000000   Number         0  system_bat32g137.o ABSOLUTE
    ..\\Library\\Driver\\src\\adc.c          0x00000000   Number         0  adc.o ABSOLUTE
    ..\\Library\\Driver\\src\\flash.c        0x00000000   Number         0  flash.o ABSOLUTE
    ..\\Library\\Driver\\src\\gpio.c         0x00000000   Number         0  gpio.o ABSOLUTE
    ..\\Library\\Driver\\src\\intp.c         0x00000000   Number         0  intp.o ABSOLUTE
    ..\\Library\\Driver\\src\\retarget.c     0x00000000   Number         0  retarget.o ABSOLUTE
    ..\\Library\\Driver\\src\\sci.c          0x00000000   Number         0  sci.o ABSOLUTE
    ..\\Library\\Driver\\src\\tima.c         0x00000000   Number         0  tima.o ABSOLUTE
    ..\\Library\\Driver\\src\\wdt.c          0x00000000   Number         0  wdt.o ABSOLUTE
    ..\\code\\SysFile\\AppUart.c             0x00000000   Number         0  appuart.o ABSOLUTE
    ..\\code\\SysFile\\IOInit.c              0x00000000   Number         0  ioinit.o ABSOLUTE
    ..\\code\\SysFile\\KeyScan.c             0x00000000   Number         0  keyscan.o ABSOLUTE
    ..\\code\\SysFile\\Task.c                0x00000000   Number         0  task.o ABSOLUTE
    ..\\code\\SysFile\\delay.c               0x00000000   Number         0  delay.o ABSOLUTE
    ..\\code\\SysFile\\fifo.c                0x00000000   Number         0  fifo.o ABSOLUTE
    ..\\code\\SysFile\\sys_clock.c           0x00000000   Number         0  sys_clock.o ABSOLUTE
    ..\\code\\SysFile\\system.c              0x00000000   Number         0  system.o ABSOLUTE
    ..\\code\\SysFile\\window.c              0x00000000   Number         0  window.o ABSOLUTE
    ..\\code\\User\\FCT.c                    0x00000000   Number         0  fct.o ABSOLUTE
    ..\\code\\User\\FactoryMode.c            0x00000000   Number         0  factorymode.o ABSOLUTE
    ..\\code\\User\\SaveData.c               0x00000000   Number         0  savedata.o ABSOLUTE
    ..\\code\\User\\Waterflow.c              0x00000000   Number         0  waterflow.o ABSOLUTE
    ..\\code\\User\\appADC.c                 0x00000000   Number         0  appadc.o ABSOLUTE
    ..\\code\\User\\appsystem.c              0x00000000   Number         0  appsystem.o ABSOLUTE
    ..\\code\\User\\faucet.c                 0x00000000   Number         0  faucet.o ABSOLUTE
    ..\\code\\User\\main.c                   0x00000000   Number         0  main.o ABSOLUTE
    ..\\code\\User\\modbus.c                 0x00000000   Number         0  modbus.o ABSOLUTE
    ..\\code\\User\\sim_eeprom.c             0x00000000   Number         0  sim_eeprom.o ABSOLUTE
    ..\\code\\User\\wifi.c                   0x00000000   Number         0  wifi.o ABSOLUTE
    ..\\code\\drv\\drvADC.c                  0x00000000   Number         0  drvadc.o ABSOLUTE
    ..\\code\\drv\\drvI2C.c                  0x00000000   Number         0  drvi2c.o ABSOLUTE
    ..\\code\\drv\\drvLeak.c                 0x00000000   Number         0  drvleak.o ABSOLUTE
    ..\\code\\drv\\drvTDS.c                  0x00000000   Number         0  drvtds.o ABSOLUTE
    ..\\code\\drv\\drvValve.c                0x00000000   Number         0  drvvalve.o ABSOLUTE
    ..\\code\\win\\WinFilterSet.c            0x00000000   Number         0  winfilterset.o ABSOLUTE
    ..\\code\\win\\Windesktop.c              0x00000000   Number         0  windesktop.o ABSOLUTE
    ..\code\SysFile\AppUart.c                0x00000000   Number         0  appuart.o ABSOLUTE
    ..\code\SysFile\IOInit.c                 0x00000000   Number         0  ioinit.o ABSOLUTE
    ..\code\SysFile\KeyScan.c                0x00000000   Number         0  keyscan.o ABSOLUTE
    ..\code\SysFile\Task.c                   0x00000000   Number         0  task.o ABSOLUTE
    ..\code\SysFile\delay.c                  0x00000000   Number         0  delay.o ABSOLUTE
    ..\code\SysFile\fifo.c                   0x00000000   Number         0  fifo.o ABSOLUTE
    ..\code\SysFile\sys_clock.c              0x00000000   Number         0  sys_clock.o ABSOLUTE
    ..\code\SysFile\system.c                 0x00000000   Number         0  system.o ABSOLUTE
    ..\code\SysFile\window.c                 0x00000000   Number         0  window.o ABSOLUTE
    ..\code\User\FCT.c                       0x00000000   Number         0  fct.o ABSOLUTE
    ..\code\User\FactoryMode.c               0x00000000   Number         0  factorymode.o ABSOLUTE
    ..\code\User\SaveData.c                  0x00000000   Number         0  savedata.o ABSOLUTE
    ..\code\User\Waterflow.c                 0x00000000   Number         0  waterflow.o ABSOLUTE
    ..\code\User\appADC.c                    0x00000000   Number         0  appadc.o ABSOLUTE
    ..\code\User\appsystem.c                 0x00000000   Number         0  appsystem.o ABSOLUTE
    ..\code\User\faucet.c                    0x00000000   Number         0  faucet.o ABSOLUTE
    ..\code\User\main.c                      0x00000000   Number         0  main.o ABSOLUTE
    ..\code\User\modbus.c                    0x00000000   Number         0  modbus.o ABSOLUTE
    ..\code\User\sim_eeprom.c                0x00000000   Number         0  sim_eeprom.o ABSOLUTE
    ..\code\User\wifi.c                      0x00000000   Number         0  wifi.o ABSOLUTE
    ..\code\drv\drvADC.c                     0x00000000   Number         0  drvadc.o ABSOLUTE
    ..\code\drv\drvI2C.c                     0x00000000   Number         0  drvi2c.o ABSOLUTE
    ..\code\drv\drvLeak.c                    0x00000000   Number         0  drvleak.o ABSOLUTE
    ..\code\drv\drvTDS.c                     0x00000000   Number         0  drvtds.o ABSOLUTE
    ..\code\drv\drvValve.c                   0x00000000   Number         0  drvvalve.o ABSOLUTE
    ..\code\win\WinFilterSet.c               0x00000000   Number         0  winfilterset.o ABSOLUTE
    ..\code\win\Windesktop.c                 0x00000000   Number         0  windesktop.o ABSOLUTE
    cdcmple.s                                0x00000000   Number         0  cdcmple.o ABSOLUTE
    cdrcmple.s                               0x00000000   Number         0  cdrcmple.o ABSOLUTE
    dc.s                                     0x00000000   Number         0  dc.o ABSOLUTE
    handlers.s                               0x00000000   Number         0  handlers.o ABSOLUTE
    init.s                                   0x00000000   Number         0  init.o ABSOLUTE
    .ARM.__AT_0x000000C0                     0x000000c0   Section        4  system_bat32g137.o(.ARM.__AT_0x000000C0)
    .ARM.Collect$$$$00000000                 0x000000c4   Section        0  entry.o(.ARM.Collect$$$$00000000)
    .ARM.Collect$$$$00000001                 0x000000c4   Section        4  entry2.o(.ARM.Collect$$$$00000001)
    .ARM.Collect$$$$00000004                 0x000000c8   Section        4  entry5.o(.ARM.Collect$$$$00000004)
    .ARM.Collect$$$$00000008                 0x000000cc   Section        0  entry7b.o(.ARM.Collect$$$$00000008)
    .ARM.Collect$$$$0000000A                 0x000000cc   Section        0  entry8b.o(.ARM.Collect$$$$0000000A)
    .ARM.Collect$$$$0000000B                 0x000000cc   Section        8  entry9a.o(.ARM.Collect$$$$0000000B)
    .ARM.Collect$$$$0000000E                 0x000000d4   Section        4  entry12b.o(.ARM.Collect$$$$0000000E)
    .ARM.Collect$$$$0000000F                 0x000000d8   Section        0  entry10a.o(.ARM.Collect$$$$0000000F)
    .ARM.Collect$$$$00000011                 0x000000d8   Section        0  entry11a.o(.ARM.Collect$$$$00000011)
    .ARM.Collect$$$$00002712                 0x000000d8   Section        4  entry2.o(.ARM.Collect$$$$00002712)
    __lit__00000000                          0x000000d8   Data           4  entry2.o(.ARM.Collect$$$$00002712)
    .text                                    0x000000dc   Section      100  startup_bat32g137_1.o(.text)
    .text                                    0x00000140   Section        0  uidiv.o(.text)
    .text                                    0x0000016c   Section        0  idiv.o(.text)
    .text                                    0x00000194   Section        0  memcpya.o(.text)
    .text                                    0x000001b8   Section        0  memseta.o(.text)
    .text                                    0x000001dc   Section        0  strstr.o(.text)
    .text                                    0x00000204   Section        0  strlen.o(.text)
    .text                                    0x00000212   Section        0  strcpy.o(.text)
    .text                                    0x00000224   Section        0  uread4.o(.text)
    .text                                    0x00000238   Section        0  uwrite4.o(.text)
    .text                                    0x0000024c   Section        0  __0sscanf.o(.text)
    .text                                    0x00000288   Section        0  _scanf_int.o(.text)
    .text                                    0x000003d2   Section        0  fadd.o(.text)
    .text                                    0x00000484   Section        0  fmul.o(.text)
    .text                                    0x000004fe   Section        0  fdiv.o(.text)
    .text                                    0x0000057c   Section        0  dadd.o(.text)
    .text                                    0x000006e4   Section        0  dmul.o(.text)
    .text                                    0x000007b4   Section        0  ddiv.o(.text)
    .text                                    0x000008a4   Section        0  ffltui.o(.text)
    .text                                    0x000008b4   Section        0  dflti.o(.text)
    .text                                    0x000008dc   Section        0  dfltui.o(.text)
    .text                                    0x000008f8   Section        0  ffixi.o(.text)
    .text                                    0x0000092a   Section        0  ffixui.o(.text)
    .text                                    0x00000954   Section        0  dfixi.o(.text)
    .text                                    0x0000099c   Section        0  f2d.o(.text)
    .text                                    0x000009c4   Section       40  cdcmple.o(.text)
    .text                                    0x000009ec   Section       40  cdrcmple.o(.text)
    .text                                    0x00000a14   Section        0  d2f.o(.text)
    .text                                    0x00000a4c   Section        0  llshl.o(.text)
    .text                                    0x00000a6c   Section        0  llushr.o(.text)
    .text                                    0x00000a8e   Section        0  llsshr.o(.text)
    .text                                    0x00000ab4   Section        0  _chval.o(.text)
    .text                                    0x00000ad4   Section        0  scanf_char.o(.text)
    _scanf_char_input                        0x00000ad5   Thumb Code    12  scanf_char.o(.text)
    .text                                    0x00000b00   Section        0  _sgetc.o(.text)
    .text                                    0x00000b44   Section        0  iusefp.o(.text)
    .text                                    0x00000b44   Section        0  fepilogue.o(.text)
    .text                                    0x00000bc6   Section        0  depilogue.o(.text)
    .text                                    0x00000c84   Section        0  dscalb.o(.text)
    .text                                    0x00000cb0   Section       36  init.o(.text)
    .text                                    0x00000cd4   Section        0  isspace_c.o(.text)
    .text                                    0x00000ce4   Section        0  _scanf.o(.text)
    .text                                    0x00001020   Section        0  dsqrt.o(.text)
    .text                                    0x000010c4   Section        0  ctype_c.o(.text)
    .text                                    0x000010e8   Section        0  __dczerorl2.o(.text)
    i.ADCInit                                0x0000113e   Section        0  main.o(i.ADCInit)
    i.ADC_Converse                           0x00001148   Section        0  adc.o(i.ADC_Converse)
    i.ADC_Init                               0x000011d0   Section        0  adc.o(i.ADC_Init)
    i.ADC_Start                              0x00001298   Section        0  drvadc.o(i.ADC_Start)
    i.ASCII2Hex                              0x000012a4   Section        0  wifi.o(i.ASCII2Hex)
    i.AllLedFlashTimes                       0x00001304   Section        0  windesktop.o(i.AllLedFlashTimes)
    i.AppADCInit                             0x000015c0   Section        0  appadc.o(i.AppADCInit)
    i.AppADCStart                            0x00001654   Section        0  appadc.o(i.AppADCStart)
    i.AppADCStop                             0x00001664   Section        0  appadc.o(i.AppADCStop)
    i.AppSystemInit                          0x00001674   Section        0  appsystem.o(i.AppSystemInit)
    i.Beepring                               0x000016e8   Section        0  appsystem.o(i.Beepring)
    i.CLK_GetCoreFreq                        0x00001748   Section        0  system_bat32g137.o(i.CLK_GetCoreFreq)
    i.CalculateTemp                          0x000017f4   Section        0  drvtds.o(i.CalculateTemp)
    i.CheckFlushState                        0x00001a78   Section        0  appsystem.o(i.CheckFlushState)
    i.ClearLongTimeWorkFlag                  0x00001ac4   Section        0  appsystem.o(i.ClearLongTimeWorkFlag)
    i.CloseAllPeripheral                     0x00001af0   Section        0  appsystem.o(i.CloseAllPeripheral)
    i.ClosePump                              0x00001b74   Section        0  appsystem.o(i.ClosePump)
    i.CmdREGHandle                           0x00001b80   Section        0  modbus.o(i.CmdREGHandle)
    i.CreatePage                             0x00001cc8   Section        0  window.o(i.CreatePage)
    i.DefWindowProc                          0x00001cd8   Section        0  window.o(i.DefWindowProc)
    i.DesktopUpdate                          0x00001d50   Section        0  appsystem.o(i.DesktopUpdate)
    i.DisplayError                           0x00001f48   Section        0  appsystem.o(i.DisplayError)
    i.DisplayUpdate                          0x00001fd8   Section        0  appsystem.o(i.DisplayUpdate)
    i.EQUI_EnterWifiNetwork                  0x0000202c   Section        0  wifi.o(i.EQUI_EnterWifiNetwork)
    i.EQUI_SendAlarmInfo                     0x0000205c   Section        0  wifi.o(i.EQUI_SendAlarmInfo)
    i.EQUI_SendWifiNetwork                   0x000020a0   Section        0  wifi.o(i.EQUI_SendWifiNetwork)
    i.EQUI_UpdataState                       0x000020c0   Section        0  wifi.o(i.EQUI_UpdataState)
    i.EnterAutoFlushing                      0x00002430   Section        0  appsystem.o(i.EnterAutoFlushing)
    i.EnterBackFlowMode                      0x00002480   Section        0  appsystem.o(i.EnterBackFlowMode)
    i.EnterErrorMode                         0x000024c0   Section        0  appsystem.o(i.EnterErrorMode)
    i.EnterFCTMode                           0x000024e8   Section        0  appsystem.o(i.EnterFCTMode)
    i.EnterFactoryMode                       0x00002510   Section        0  factorymode.o(i.EnterFactoryMode)
    i.EnterLiveMode                          0x00002568   Section        0  appsystem.o(i.EnterLiveMode)
    i.EnterLockWaterMode                     0x00002580   Section        0  appsystem.o(i.EnterLockWaterMode)
    i.EnterLongTimeWork                      0x000025a8   Section        0  appsystem.o(i.EnterLongTimeWork)
    i.EnterManualFlush                       0x000025dc   Section        0  appsystem.o(i.EnterManualFlush)
    i.EnterPowerOnFlushing                   0x00002624   Section        0  appsystem.o(i.EnterPowerOnFlushing)
    i.EnterProc                              0x0000266c   Section        0  appsystem.o(i.EnterProc)
    i.EnterStandby                           0x00002828   Section        0  appsystem.o(i.EnterStandby)
    i.EnterWorkMode                          0x00002838   Section        0  appsystem.o(i.EnterWorkMode)
    i.ExitAutoFlushing                       0x0000287c   Section        0  appsystem.o(i.ExitAutoFlushing)
    i.ExitBackFlowMode                       0x000028b4   Section        0  appsystem.o(i.ExitBackFlowMode)
    i.ExitErrorMode                          0x000028f4   Section        0  appsystem.o(i.ExitErrorMode)
    i.ExitFCTMode                            0x00002904   Section        0  appsystem.o(i.ExitFCTMode)
    i.ExitFactoryMode                        0x00002938   Section        0  factorymode.o(i.ExitFactoryMode)
    i.ExitFilterFast                         0x00002974   Section        0  factorymode.o(i.ExitFilterFast)
    i.ExitGasDetection                       0x000029a4   Section        0  factorymode.o(i.ExitGasDetection)
    i.ExitLiveMode                           0x000029dc   Section        0  appsystem.o(i.ExitLiveMode)
    i.ExitLockWaterMode                      0x00002a04   Section        0  appsystem.o(i.ExitLockWaterMode)
    i.ExitLongTimeWork                       0x00002a14   Section        0  appsystem.o(i.ExitLongTimeWork)
    i.ExitManualFlush                        0x00002a30   Section        0  appsystem.o(i.ExitManualFlush)
    i.ExitPowerOnFlushing                    0x00002a90   Section        0  appsystem.o(i.ExitPowerOnFlushing)
    i.ExitProc                               0x00002ac4   Section        0  appsystem.o(i.ExitProc)
    i.ExitTimer                              0x00002bf8   Section        0  appsystem.o(i.ExitTimer)
    i.ExitWaterDetection                     0x00002c1c   Section        0  factorymode.o(i.ExitWaterDetection)
    i.ExitWorkMode                           0x00002c58   Section        0  appsystem.o(i.ExitWorkMode)
    i.ExternalInterruptInit                  0x00002cb4   Section        0  waterflow.o(i.ExternalInterruptInit)
    i.FCT_FaucetDataProc                     0x00002ce8   Section        0  fct.o(i.FCT_FaucetDataProc)
    i.FCT_LeakRes                            0x00002d1c   Section        0  fct.o(i.FCT_LeakRes)
    i.FCT_ModeInit                           0x00002d48   Section        0  fct.o(i.FCT_ModeInit)
    i.FCT_Monitor                            0x00002dd8   Section        0  fct.o(i.FCT_Monitor)
    i.FCT_NTC2Res                            0x00002f08   Section        0  fct.o(i.FCT_NTC2Res)
    i.FCT_NTCRes                             0x00002f34   Section        0  fct.o(i.FCT_NTCRes)
    i.FCT_PumpADC                            0x00002f60   Section        0  fct.o(i.FCT_PumpADC)
    i.FCT_netTDSRes                          0x00002f8c   Section        0  fct.o(i.FCT_netTDSRes)
    i.FCT_rawTDSRes                          0x00002fc8   Section        0  fct.o(i.FCT_rawTDSRes)
    i.FLASH_ErasePage                        0x00003004   Section        0  sim_eeprom.o(i.FLASH_ErasePage)
    i.Faucet_Display                         0x00003010   Section        0  faucet.o(i.Faucet_Display)
    i.Faucet_PowneOnDisplay                  0x0000314c   Section        0  faucet.o(i.Faucet_PowneOnDisplay)
    i.Faucet_proc                            0x000031d4   Section        0  faucet.o(i.Faucet_proc)
    i.Faucet_workstate                       0x00003248   Section        0  faucet.o(i.Faucet_workstate)
    i.FilterDetection                        0x00003300   Section        0  factorymode.o(i.FilterDetection)
    i.FilterFast                             0x0000335c   Section        0  factorymode.o(i.FilterFast)
    i.FilterLifeCalculate                    0x0000342c   Section        0  appsystem.o(i.FilterLifeCalculate)
    i.FilterLifeLive                         0x000034e4   Section        0  appsystem.o(i.FilterLifeLive)
    i.FilterReset_PCB                        0x00003580   Section        0  appsystem.o(i.FilterReset_PCB)
    i.FilterReset_RO                         0x000035a0   Section        0  appsystem.o(i.FilterReset_RO)
    i.FlashDataRead                          0x000035c0   Section        0  sim_eeprom.o(i.FlashDataRead)
    i.FlashDataSave                          0x000036c8   Section        0  sim_eeprom.o(i.FlashDataSave)
    i.GasDetection                           0x00003760   Section        0  factorymode.o(i.GasDetection)
    i.GetADCValues                           0x0000379c   Section        0  drvadc.o(i.GetADCValues)
    i.GetAllError                            0x000037b8   Section        0  wifi.o(i.GetAllError)
    i.GetChannalADCVal                       0x0000388c   Section        0  appadc.o(i.GetChannalADCVal)
    i.GetCommData                            0x0000397c   Section        0  wifi.o(i.GetCommData)
    i.GetEncryptionFlag                      0x000039a8   Section        0  wifi.o(i.GetEncryptionFlag)
    i.GetFaucetData                          0x000039b4   Section        0  appuart.o(i.GetFaucetData)
    i.GetFlowMeterPulse                      0x00003a10   Section        0  waterflow.o(i.GetFlowMeterPulse)
    i.GetHVSstate                            0x00003a60   Section        0  appsystem.o(i.GetHVSstate)
    i.GetKeyState                            0x00003ac8   Section        0  keyscan.o(i.GetKeyState)
    i.GetLeakADC                             0x00003c30   Section        0  appsystem.o(i.GetLeakADC)
    i.GetLeakRes                             0x00003c88   Section        0  fct.o(i.GetLeakRes)
    i.GetMessage                             0x00003cc4   Section        0  system.o(i.GetMessage)
    i.GetModbusCRC                           0x00003d6c   Section        0  modbus.o(i.GetModbusCRC)
    i.GetNTCResVal                           0x00003db0   Section        0  drvtds.o(i.GetNTCResVal)
    i.GetNTCTemp                             0x00003dec   Section        0  drvtds.o(i.GetNTCTemp)
    i.GetNTCTemp2                            0x00003e98   Section        0  drvtds.o(i.GetNTCTemp2)
    i.GetOperationMode                       0x00003f44   Section        0  wifi.o(i.GetOperationMode)
    i.GetPumpADC                             0x00003f88   Section        0  appsystem.o(i.GetPumpADC)
    i.GetSum                                 0x00003ff8   Section        0  faucet.o(i.GetSum)
    GetSum                                   0x00003ff9   Thumb Code    28  faucet.o(i.GetSum)
    i.GetSum                                 0x00004014   Section        0  wifi.o(i.GetSum)
    i.GetSysSeting                           0x00004030   Section        0  savedata.o(i.GetSysSeting)
    i.GetSystemTime                          0x000041a8   Section        0  system.o(i.GetSystemTime)
    i.GetTDSRes                              0x000041bc   Section        0  fct.o(i.GetTDSRes)
    i.GetTDS_net                             0x000041f8   Section        0  drvtds.o(i.GetTDS_net)
    i.GetTDS_raw                             0x00004202   Section        0  drvtds.o(i.GetTDS_raw)
    i.GetTDS_temp                            0x0000420c   Section        0  drvtds.o(i.GetTDS_temp)
    i.GetVoltageValue                        0x00004216   Section        0  appadc.o(i.GetVoltageValue)
    i.GetWifiData                            0x0000423c   Section        0  appuart.o(i.GetWifiData)
    i.Getkey                                 0x00004298   Section        0  keyscan.o(i.Getkey)
    i.GetnetTDS                              0x000042bc   Section        0  drvtds.o(i.GetnetTDS)
    i.GetrawTDS                              0x00004308   Section        0  drvtds.o(i.GetrawTDS)
    i.HkeytoVkey                             0x0000434c   Section        0  keyscan.o(i.HkeytoVkey)
    i.I2C_ReadKey                            0x000043a4   Section        0  drvi2c.o(i.I2C_ReadKey)
    i.I2C_SendDisplay                        0x0000442c   Section        0  drvi2c.o(i.I2C_SendDisplay)
    i.IIC_Init                               0x0000445e   Section        0  drvi2c.o(i.IIC_Init)
    i.IIC_RecvACK                            0x0000447e   Section        0  drvi2c.o(i.IIC_RecvACK)
    i.IIC_RecvByte                           0x000044c2   Section        0  drvi2c.o(i.IIC_RecvByte)
    i.IIC_SendACK                            0x0000452e   Section        0  drvi2c.o(i.IIC_SendACK)
    i.IIC_SendByte                           0x00004566   Section        0  drvi2c.o(i.IIC_SendByte)
    i.IIC_Start                              0x000045d2   Section        0  drvi2c.o(i.IIC_Start)
    i.IIC_Stop                               0x00004608   Section        0  drvi2c.o(i.IIC_Stop)
    i.INTC_ClearPendingIRQ                   0x00004630   Section        0  adc.o(i.INTC_ClearPendingIRQ)
    INTC_ClearPendingIRQ                     0x00004631   Thumb Code    62  adc.o(i.INTC_ClearPendingIRQ)
    i.INTC_ClearPendingIRQ                   0x00004674   Section        0  sci.o(i.INTC_ClearPendingIRQ)
    INTC_ClearPendingIRQ                     0x00004675   Thumb Code    62  sci.o(i.INTC_ClearPendingIRQ)
    i.INTC_ClearPendingIRQ                   0x000046b8   Section        0  intp.o(i.INTC_ClearPendingIRQ)
    INTC_ClearPendingIRQ                     0x000046b9   Thumb Code    62  intp.o(i.INTC_ClearPendingIRQ)
    i.INTC_ClearPendingIRQ                   0x000046fc   Section        0  appuart.o(i.INTC_ClearPendingIRQ)
    INTC_ClearPendingIRQ                     0x000046fd   Thumb Code    62  appuart.o(i.INTC_ClearPendingIRQ)
    i.INTC_ClearPendingIRQ                   0x00004740   Section        0  waterflow.o(i.INTC_ClearPendingIRQ)
    INTC_ClearPendingIRQ                     0x00004741   Thumb Code    62  waterflow.o(i.INTC_ClearPendingIRQ)
    i.INTC_DisableIRQ                        0x00004784   Section        0  adc.o(i.INTC_DisableIRQ)
    INTC_DisableIRQ                          0x00004785   Thumb Code    60  adc.o(i.INTC_DisableIRQ)
    i.INTC_DisableIRQ                        0x000047c4   Section        0  sci.o(i.INTC_DisableIRQ)
    INTC_DisableIRQ                          0x000047c5   Thumb Code    60  sci.o(i.INTC_DisableIRQ)
    i.INTC_DisableIRQ                        0x00004804   Section        0  intp.o(i.INTC_DisableIRQ)
    INTC_DisableIRQ                          0x00004805   Thumb Code    60  intp.o(i.INTC_DisableIRQ)
    i.INTC_DisableIRQ                        0x00004844   Section        0  appuart.o(i.INTC_DisableIRQ)
    INTC_DisableIRQ                          0x00004845   Thumb Code    60  appuart.o(i.INTC_DisableIRQ)
    i.INTC_EnableIRQ                         0x00004884   Section        0  sci.o(i.INTC_EnableIRQ)
    INTC_EnableIRQ                           0x00004885   Thumb Code    60  sci.o(i.INTC_EnableIRQ)
    i.INTC_EnableIRQ                         0x000048c4   Section        0  intp.o(i.INTC_EnableIRQ)
    INTC_EnableIRQ                           0x000048c5   Thumb Code    60  intp.o(i.INTC_EnableIRQ)
    i.INTC_EnableIRQ                         0x00004904   Section        0  appuart.o(i.INTC_EnableIRQ)
    INTC_EnableIRQ                           0x00004905   Thumb Code    60  appuart.o(i.INTC_EnableIRQ)
    i.INTC_GetPendingIRQ                     0x00004944   Section        0  adc.o(i.INTC_GetPendingIRQ)
    INTC_GetPendingIRQ                       0x00004945   Thumb Code    64  adc.o(i.INTC_GetPendingIRQ)
    i.INTC_GetPendingIRQ                     0x00004988   Section        0  waterflow.o(i.INTC_GetPendingIRQ)
    INTC_GetPendingIRQ                       0x00004989   Thumb Code    64  waterflow.o(i.INTC_GetPendingIRQ)
    i.INTP_Init                              0x000049cc   Section        0  intp.o(i.INTP_Init)
    i.INTP_Start                             0x00004ec4   Section        0  intp.o(i.INTP_Start)
    i.IOInit                                 0x00004efe   Section        0  ioinit.o(i.IOInit)
    i.IRQ26_Handler                          0x00005028   Section        0  waterflow.o(i.IRQ26_Handler)
    tma0_interrupt                           0x00005029   Thumb Code     0  waterflow.o(i.IRQ26_Handler)
    i.KeyContinueHand                        0x000050a0   Section        0  winfilterset.o(i.KeyContinueHand)
    KeyContinueHand                          0x000050a1   Thumb Code    30  winfilterset.o(i.KeyContinueHand)
    i.KeyContinueHand                        0x000050c0   Section        0  windesktop.o(i.KeyContinueHand)
    KeyContinueHand                          0x000050c1   Thumb Code    52  windesktop.o(i.KeyContinueHand)
    i.KeyDownHand                            0x000050f8   Section        0  winfilterset.o(i.KeyDownHand)
    KeyDownHand                              0x000050f9   Thumb Code    46  winfilterset.o(i.KeyDownHand)
    i.KeyDownHand                            0x0000512c   Section        0  windesktop.o(i.KeyDownHand)
    KeyDownHand                              0x0000512d   Thumb Code    92  windesktop.o(i.KeyDownHand)
    i.KillTimer                              0x00005190   Section        0  system.o(i.KillTimer)
    i.LEDLight                               0x0000520c   Section        0  appsystem.o(i.LEDLight)
    i.LongKeyHand                            0x0000526c   Section        0  winfilterset.o(i.LongKeyHand)
    LongKeyHand                              0x0000526d   Thumb Code    54  winfilterset.o(i.LongKeyHand)
    i.LongKeyHand                            0x000052a8   Section        0  windesktop.o(i.LongKeyHand)
    LongKeyHand                              0x000052a9   Thumb Code   196  windesktop.o(i.LongKeyHand)
    i.LongKeyUpHand                          0x00005374   Section        0  windesktop.o(i.LongKeyUpHand)
    LongKeyUpHand                            0x00005375   Thumb Code    28  windesktop.o(i.LongKeyUpHand)
    i.MA                                     0x00005390   Section        0  appadc.o(i.MA)
    i.ModbusProc                             0x000053c0   Section        0  modbus.o(i.ModbusProc)
    i.Modbus_SetReg                          0x00005500   Section        0  modbus.o(i.Modbus_SetReg)
    i.MonitorAppADC                          0x00005514   Section        0  appadc.o(i.MonitorAppADC)
    i.MonitorBigData                         0x000055c8   Section        0  wifi.o(i.MonitorBigData)
    i.MonitorHVS_Faucet                      0x00005628   Section        0  appsystem.o(i.MonitorHVS_Faucet)
    i.MonitorState                           0x00005768   Section        0  appsystem.o(i.MonitorState)
    i.MonitorTDS                             0x00005814   Section        0  drvtds.o(i.MonitorTDS)
    i.MonitorTimer                           0x000058b8   Section        0  system.o(i.MonitorTimer)
    i.MonitorWater                           0x000059c8   Section        0  appsystem.o(i.MonitorWater)
    i.MonitrorAlarm                          0x00005bd0   Section        0  wifi.o(i.MonitrorAlarm)
    i.NetworkTimer                           0x00005cb0   Section        0  wifi.o(i.NetworkTimer)
    i.OpenPump                               0x00005d4c   Section        0  appsystem.o(i.OpenPump)
    i.OpenPump_InletValve2                   0x00005d7c   Section        0  appsystem.o(i.OpenPump_InletValve2)
    i.PORT_ClrBit                            0x00005d8c   Section        0  gpio.o(i.PORT_ClrBit)
    i.PORT_GetBit                            0x00005db0   Section        0  gpio.o(i.PORT_GetBit)
    i.PORT_Init                              0x00005dd0   Section        0  gpio.o(i.PORT_Init)
    i.PORT_SetBit                            0x00005f68   Section        0  gpio.o(i.PORT_SetBit)
    i.ParsingDisplayData                     0x00005f8c   Section        0  appsystem.o(i.ParsingDisplayData)
    i.PowerDownCheck                         0x00005fc4   Section        0  appsystem.o(i.PowerDownCheck)
    i.PowerOnDisplay                         0x00006028   Section        0  appsystem.o(i.PowerOnDisplay)
    i.ResetPowerOnFlushFlag                  0x00006098   Section        0  appsystem.o(i.ResetPowerOnFlushFlag)
    i.RestFilter                             0x000060ac   Section        0  winfilterset.o(i.RestFilter)
    i.RestoreFactory                         0x000060c4   Section        0  appsystem.o(i.RestoreFactory)
    i.ReturnWriteMultiRegOK                  0x000061dc   Section        0  modbus.o(i.ReturnWriteMultiRegOK)
    i.SYSClockInit                           0x00006220   Section        0  sys_clock.o(i.SYSClockInit)
    i.SYSInit                                0x00006268   Section        0  system.o(i.SYSInit)
    i.SYS_Init                               0x000062fc   Section        0  main.o(i.SYS_Init)
    i.SaveSysSeting                          0x0000632c   Section        0  savedata.o(i.SaveSysSeting)
    i.SendMessage                            0x000064a4   Section        0  system.o(i.SendMessage)
    i.SendModbusError                        0x00006510   Section        0  modbus.o(i.SendModbusError)
    i.SendModbusRegData                      0x00006548   Section        0  modbus.o(i.SendModbusRegData)
    i.SetAutoFlushFlag                       0x000065d4   Section        0  appsystem.o(i.SetAutoFlushFlag)
    i.SetBoosterPump                         0x000065ec   Section        0  appsystem.o(i.SetBoosterPump)
    i.SetInletValve                          0x0000667c   Section        0  appsystem.o(i.SetInletValve)
    i.SetInletValve2                         0x00006698   Section        0  appsystem.o(i.SetInletValve2)
    i.SetSystemTime                          0x000066b4   Section        0  system.o(i.SetSystemTime)
    i.SetTDSUpdataEN                         0x000066c8   Section        0  drvtds.o(i.SetTDSUpdataEN)
    i.SetWasteWaterValve                     0x000066d4   Section        0  appsystem.o(i.SetWasteWaterValve)
    i.Small2BigMode                          0x000066f0   Section        0  modbus.o(i.Small2BigMode)
    i.SmallMode2BitMode                      0x000066fc   Section        0  wifi.o(i.SmallMode2BitMode)
    i.Standby                                0x0000671c   Section        0  appsystem.o(i.Standby)
    i.StandbyRestart                         0x00006760   Section        0  appsystem.o(i.StandbyRestart)
    i.SyStemTimeTask                         0x0000679c   Section        0  system.o(i.SyStemTimeTask)
    i.SysSetingInit                          0x00006888   Section        0  savedata.o(i.SysSetingInit)
    i.SysTick_Handler                        0x000068f4   Section        0  sys_clock.o(i.SysTick_Handler)
    i.SystemCoreClockUpdate                  0x00006aac   Section        0  system_bat32g137.o(i.SystemCoreClockUpdate)
    i.SystemInit                             0x00006abc   Section        0  system_bat32g137.o(i.SystemInit)
    i.TaskKeySan                             0x00006b30   Section        0  keyscan.o(i.TaskKeySan)
    i.TaskProcess                            0x00006bb8   Section        0  task.o(i.TaskProcess)
    i.TemperatureCompensation                0x00006bf0   Section        0  drvtds.o(i.TemperatureCompensation)
    i.TimeSetEvent                           0x00006c7c   Section        0  system.o(i.TimeSetEvent)
    i.UART0_BaudRate                         0x00006d48   Section        0  sci.o(i.UART0_BaudRate)
    i.UART0_Init                             0x00006dac   Section        0  sci.o(i.UART0_Init)
    i.UART0_Start                            0x00006ef8   Section        0  sci.o(i.UART0_Start)
    i.UART2_BaudRate                         0x00006f48   Section        0  sci.o(i.UART2_BaudRate)
    i.UART2_Init                             0x00006f98   Section        0  sci.o(i.UART2_Init)
    i.UART2_Start                            0x000070ec   Section        0  sci.o(i.UART2_Start)
    i.UART_BaudRateCal                       0x0000713c   Section        0  sci.o(i.UART_BaudRateCal)
    i.UartSendDisplayData                    0x00007220   Section        0  appuart.o(i.UartSendDisplayData)
    i.UartSendFaucetData                     0x00007270   Section        0  appuart.o(i.UartSendFaucetData)
    i.UartSendWifiData                       0x000072c0   Section        0  appuart.o(i.UartSendWifiData)
    i.UpdataFlowMeterWaterVolume             0x00007310   Section        0  waterflow.o(i.UpdataFlowMeterWaterVolume)
    i.Update                                 0x000074dc   Section        0  winfilterset.o(i.Update)
    Update                                   0x000074dd   Thumb Code   242  winfilterset.o(i.Update)
    i.UpdateFilterLife                       0x000075dc   Section        0  appsystem.o(i.UpdateFilterLife)
    i.UpdateStandby                          0x00007680   Section        0  windesktop.o(i.UpdateStandby)
    UpdateStandby                            0x00007681   Thumb Code    18  windesktop.o(i.UpdateStandby)
    i.UserDataCrcCheck                       0x00007698   Section        0  sim_eeprom.o(i.UserDataCrcCheck)
    UserDataCrcCheck                         0x00007699   Thumb Code    46  sim_eeprom.o(i.UserDataCrcCheck)
    i.UserTdsPatch                           0x000076c8   Section        0  drvtds.o(i.UserTdsPatch)
    UserTdsPatch                             0x000076c9   Thumb Code   296  drvtds.o(i.UserTdsPatch)
    i.WDT_Restart                            0x0000783c   Section        0  wdt.o(i.WDT_Restart)
    i.WIFI_AddData2protocol                  0x00007848   Section        0  wifi.o(i.WIFI_AddData2protocol)
    i.WIFI_ControlHand                       0x000078fc   Section        0  wifi.o(i.WIFI_ControlHand)
    i.WIFI_GetWifiStatus                     0x000079cc   Section        0  wifi.o(i.WIFI_GetWifiStatus)
    i.WIFI_SendTypeID                        0x00007a5c   Section        0  wifi.o(i.WIFI_SendTypeID)
    i.WIFI_SetBigDataHeartbeat               0x00007ac0   Section        0  wifi.o(i.WIFI_SetBigDataHeartbeat)
    i.WIFI_SetHeartbeat                      0x00007b20   Section        0  wifi.o(i.WIFI_SetHeartbeat)
    i.WIFI_SetPriFilterReset                 0x00007b84   Section        0  wifi.o(i.WIFI_SetPriFilterReset)
    i.WIFI_SetRoFilterReset                  0x00007b96   Section        0  wifi.o(i.WIFI_SetRoFilterReset)
    i.WIFI_SetTime                           0x00007ba8   Section        0  wifi.o(i.WIFI_SetTime)
    i.WIIF_SendEquiVersion                   0x00007c14   Section        0  wifi.o(i.WIIF_SendEquiVersion)
    i.WaterCounter                           0x00007c88   Section        0  appsystem.o(i.WaterCounter)
    i.WaterDetection                         0x00007cdc   Section        0  factorymode.o(i.WaterDetection)
    i.WifiMsgProc                            0x00007d24   Section        0  wifi.o(i.WifiMsgProc)
    i.WinDesktopInit                         0x00007f08   Section        0  windesktop.o(i.WinDesktopInit)
    i.WinFilterSetInit                       0x00007f3c   Section        0  winfilterset.o(i.WinFilterSetInit)
    i.WinInit                                0x00007f70   Section        0  window.o(i.WinInit)
    i.WinPageInit                            0x00007f98   Section        0  winfilterset.o(i.WinPageInit)
    WinPageInit                              0x00007f99   Thumb Code     8  winfilterset.o(i.WinPageInit)
    i.WinPageInit                            0x00007fa4   Section        0  windesktop.o(i.WinPageInit)
    WinPageInit                              0x00007fa5   Thumb Code     8  windesktop.o(i.WinPageInit)
    i.WinPageSwitch                          0x00007fac   Section        0  window.o(i.WinPageSwitch)
    i.WinProc                                0x00007ffc   Section        0  winfilterset.o(i.WinProc)
    WinProc                                  0x00007ffd   Thumb Code   100  winfilterset.o(i.WinProc)
    i.WinProc                                0x00008060   Section        0  windesktop.o(i.WinProc)
    WinProc                                  0x00008061   Thumb Code   188  windesktop.o(i.WinProc)
    i.WinTimerOut                            0x00008124   Section        0  appsystem.o(i.WinTimerOut)
    i.WndProc                                0x0000815c   Section        0  window.o(i.WndProc)
    i.WriteRegData                           0x000081f0   Section        0  modbus.o(i.WriteRegData)
    i.__ARM_clz                              0x00008224   Section        0  depilogue.o(i.__ARM_clz)
    i.__ARM_common_switch8                   0x00008252   Section        0  system_bat32g137.o(i.__ARM_common_switch8)
    i.__ARM_fpclassify                       0x00008270   Section        0  fpclassify.o(i.__ARM_fpclassify)
    i.__NVIC_ClearPendingIRQ                 0x0000829c   Section        0  sci.o(i.__NVIC_ClearPendingIRQ)
    __NVIC_ClearPendingIRQ                   0x0000829d   Thumb Code    18  sci.o(i.__NVIC_ClearPendingIRQ)
    i.__NVIC_DisableIRQ                      0x000082b4   Section        0  sci.o(i.__NVIC_DisableIRQ)
    __NVIC_DisableIRQ                        0x000082b5   Thumb Code    26  sci.o(i.__NVIC_DisableIRQ)
    i.__NVIC_EnableIRQ                       0x000082d4   Section        0  sci.o(i.__NVIC_EnableIRQ)
    __NVIC_EnableIRQ                         0x000082d5   Thumb Code    26  sci.o(i.__NVIC_EnableIRQ)
    i.__NVIC_EnableIRQ                       0x000082f4   Section        0  intp.o(i.__NVIC_EnableIRQ)
    __NVIC_EnableIRQ                         0x000082f5   Thumb Code    26  intp.o(i.__NVIC_EnableIRQ)
    i.__NVIC_SetPriority                     0x00008314   Section        0  sci.o(i.__NVIC_SetPriority)
    __NVIC_SetPriority                       0x00008315   Thumb Code   110  sci.o(i.__NVIC_SetPriority)
    i.__NVIC_SetPriority                     0x0000838c   Section        0  sys_clock.o(i.__NVIC_SetPriority)
    __NVIC_SetPriority                       0x0000838d   Thumb Code   110  sys_clock.o(i.__NVIC_SetPriority)
    i.__kernel_poly                          0x00008404   Section        0  poly.o(i.__kernel_poly)
    i.__mathlib_dbl_divzero                  0x000084b0   Section        0  dunder.o(i.__mathlib_dbl_divzero)
    i.__mathlib_dbl_infnan2                  0x000084c4   Section        0  dunder.o(i.__mathlib_dbl_infnan2)
    i.__mathlib_dbl_invalid                  0x000084cc   Section        0  dunder.o(i.__mathlib_dbl_invalid)
    i.__mathlib_dbl_overflow                 0x000084dc   Section        0  dunder.o(i.__mathlib_dbl_overflow)
    i.__mathlib_dbl_underflow                0x000084f0   Section        0  dunder.o(i.__mathlib_dbl_underflow)
    i.__scatterload_copy                     0x00008504   Section       14  handlers.o(i.__scatterload_copy)
    i.__scatterload_null                     0x00008512   Section        2  handlers.o(i.__scatterload_null)
    i.__scatterload_zeroinit                 0x00008514   Section       14  handlers.o(i.__scatterload_zeroinit)
    i.__set_errno                            0x00008524   Section        0  errno.o(i.__set_errno)
    i.bubble_sort                            0x00008530   Section        0  appadc.o(i.bubble_sort)
    i.delayms                                0x00008572   Section        0  delay.o(i.delayms)
    i.delayopenpump                          0x000085e2   Section        0  factorymode.o(i.delayopenpump)
    i.delayus                                0x000085ec   Section        0  delay.o(i.delayus)
    i.fifo_init                              0x0000864c   Section        0  fifo.o(i.fifo_init)
    i.free                                   0x0000865c   Section        0  malloc.o(i.free)
    i.intp_0_6_interrupt                     0x000086b0   Section        0  waterflow.o(i.intp_0_6_interrupt)
    i.mReadFlash                             0x00008748   Section        0  sim_eeprom.o(i.mReadFlash)
    i.mWriteFlash                            0x00008760   Section        0  sim_eeprom.o(i.mWriteFlash)
    i.main                                   0x00008778   Section        0  main.o(i.main)
    i.malloc                                 0x00008824   Section        0  malloc.o(i.malloc)
    i.pow                                    0x00008890   Section        0  pow.o(i.pow)
    i.powerDownSave                          0x0000928c   Section        0  appsystem.o(i.powerDownSave)
    i.sqrt                                   0x000092c8   Section        0  sqrt.o(i.sqrt)
    i.uart0_interrupt_receive                0x00009310   Section        0  appuart.o(i.uart0_interrupt_receive)
    i.uart0_interrupt_send                   0x00009380   Section        0  appuart.o(i.uart0_interrupt_send)
    i.uart1_interrupt_receive                0x000093d8   Section        0  appuart.o(i.uart1_interrupt_receive)
    i.uart1_interrupt_send                   0x00009448   Section        0  appuart.o(i.uart1_interrupt_send)
    i.uart2_interrupt_receive                0x000094a0   Section        0  appuart.o(i.uart2_interrupt_receive)
    i.uart2_interrupt_send                   0x00009510   Section        0  appuart.o(i.uart2_interrupt_send)
    ram_fetch_code                           0x00009568   Section        0  flash.o(ram_fetch_code)
    .constdata                               0x00009640   Section       21  fct.o(.constdata)
    .constdata                               0x00009658   Section      136  pow.o(.constdata)
    bp                                       0x00009658   Data          16  pow.o(.constdata)
    dp_h                                     0x00009668   Data          16  pow.o(.constdata)
    dp_l                                     0x00009678   Data          16  pow.o(.constdata)
    L                                        0x00009688   Data          48  pow.o(.constdata)
    P                                        0x000096b8   Data          40  pow.o(.constdata)
    .constdata                               0x000096e0   Section        8  qnan.o(.constdata)
    .constdata                               0x000096e8   Section       64  ctype_c.o(.constdata)
    .conststring                             0x00009728   Section       65  wifi.o(.conststring)
    .data                                    0x20000000   Section        4  system_bat32g137.o(.data)
    .data                                    0x20000004   Section       18  appuart.o(.data)
    RecFlag                                  0x20000007   Data           1  appuart.o(.data)
    Rec1Flag                                 0x20000008   Data           1  appuart.o(.data)
    Rec2Flag                                 0x20000009   Data           1  appuart.o(.data)
    uartcount                                0x2000000a   Data           2  appuart.o(.data)
    uart1count                               0x2000000c   Data           2  appuart.o(.data)
    uart2count                               0x2000000e   Data           2  appuart.o(.data)
    i                                        0x20000010   Data           2  appuart.o(.data)
    i                                        0x20000012   Data           2  appuart.o(.data)
    i                                        0x20000014   Data           2  appuart.o(.data)
    .data                                    0x20000016   Section        4  system.o(.data)
    .data                                    0x2000001c   Section      120  task.o(.data)
    .data                                    0x20000094   Section        8  window.o(.data)
    .data                                    0x2000009c   Section       11  keyscan.o(.data)
    u8keystep                                0x2000009c   Data           1  keyscan.o(.data)
    u8keytimecount                           0x2000009e   Data           2  keyscan.o(.data)
    u8lastkey                                0x200000a0   Data           1  keyscan.o(.data)
    u8keystate                               0x200000a1   Data           1  keyscan.o(.data)
    keydowncount                             0x200000a2   Data           2  keyscan.o(.data)
    timercount                               0x200000a4   Data           2  keyscan.o(.data)
    oldkey                                   0x200000a6   Data           1  keyscan.o(.data)
    .data                                    0x200000a7   Section        4  windesktop.o(.data)
    doubleFlag                               0x200000a9   Data           1  windesktop.o(.data)
    dd                                       0x200000aa   Data           1  windesktop.o(.data)
    .data                                    0x200000ab   Section        1  drvadc.o(.data)
    ADCChannel                               0x200000ab   Data           1  drvadc.o(.data)
    .data                                    0x200000ac   Section        8  drvtds.o(.data)
    EveryTimeGetTDSTime                      0x200000b3   Data           1  drvtds.o(.data)
    .data                                    0x200000b4   Section        1  drvi2c.o(.data)
    count                                    0x200000b4   Data           1  drvi2c.o(.data)
    .data                                    0x200000b8   Section       45  appsystem.o(.data)
    makingRemained                           0x200000c8   Data           4  appsystem.o(.data)
    remain                                   0x200000cc   Data           4  appsystem.o(.data)
    makingRemained                           0x200000d0   Data           4  appsystem.o(.data)
    remain                                   0x200000d4   Data           4  appsystem.o(.data)
    min                                      0x200000d8   Data           1  appsystem.o(.data)
    flag                                     0x200000d9   Data           1  appsystem.o(.data)
    count                                    0x200000da   Data           1  appsystem.o(.data)
    flag                                     0x200000db   Data           1  appsystem.o(.data)
    powecount                                0x200000dc   Data           1  appsystem.o(.data)
    count                                    0x200000dd   Data           1  appsystem.o(.data)
    pumpcurrent                              0x200000de   Data           2  appsystem.o(.data)
    count                                    0x200000e0   Data           1  appsystem.o(.data)
    old                                      0x200000e1   Data           1  appsystem.o(.data)
    opencount                                0x200000e2   Data           2  appsystem.o(.data)
    count                                    0x200000e4   Data           1  appsystem.o(.data)
    .data                                    0x200000e8   Section        4  savedata.o(.data)
    .data                                    0x200000ec   Section        2  appadc.o(.data)
    rawstep                                  0x200000ec   Data           1  appadc.o(.data)
    netstep                                  0x200000ed   Data           1  appadc.o(.data)
    .data                                    0x200000f0   Section        9  factorymode.o(.data)
    powerPCB                                 0x200000f0   Data           4  factorymode.o(.data)
    powerRO                                  0x200000f4   Data           4  factorymode.o(.data)
    count                                    0x200000f8   Data           1  factorymode.o(.data)
    .data                                    0x200000fc   Section        8  modbus.o(.data)
    pReg                                     0x20000100   Data           4  modbus.o(.data)
    .data                                    0x20000104   Section        5  fct.o(.data)
    pumpold                                  0x20000105   Data           1  fct.o(.data)
    InletValveold                            0x20000106   Data           1  fct.o(.data)
    wasteValveold                            0x20000107   Data           1  fct.o(.data)
    faucetcnt                                0x20000108   Data           1  fct.o(.data)
    .data                                    0x2000010a   Section       14  wifi.o(.data)
    networkcount                             0x2000010a   Data           2  wifi.o(.data)
    old                                      0x2000010c   Data           2  wifi.o(.data)
    count                                    0x2000010e   Data           2  wifi.o(.data)
    updatacount                              0x20000110   Data           2  wifi.o(.data)
    oldcrc                                   0x20000112   Data           2  wifi.o(.data)
    PriFilterResetTimes                      0x20000114   Data           2  wifi.o(.data)
    roFilterResetTimes                       0x20000116   Data           2  wifi.o(.data)
    .data                                    0x20000118   Section       14  waterflow.o(.data)
    delaytimes                               0x20000124   Data           2  waterflow.o(.data)
    .data                                    0x20000128   Section        4  mvars.o(.data)
    .data                                    0x2000012c   Section        4  mvars.o(.data)
    .data                                    0x20000130   Section        4  errno.o(.data)
    _errno                                   0x20000130   Data           4  errno.o(.data)
    .bss                                     0x20000134   Section      618  appuart.o(.bss)
    UartGetData                              0x20000134   Data         100  appuart.o(.bss)
    Uart1GetData                             0x20000198   Data         100  appuart.o(.bss)
    Uart2GetData                             0x200001fc   Data         100  appuart.o(.bss)
    uart0Sendcon                             0x20000260   Data         106  appuart.o(.bss)
    uart1Sendcon                             0x200002ca   Data         106  appuart.o(.bss)
    uart2Sendcon                             0x20000334   Data         106  appuart.o(.bss)
    .bss                                     0x2000039e   Section      106  fifo.o(.bss)
    .bss                                     0x20000408   Section      256  system.o(.bss)
    .bss                                     0x20000508   Section       24  window.o(.bss)
    .bss                                     0x20000520   Section       11  winfilterset.o(.bss)
    .bss                                     0x2000052b   Section       11  windesktop.o(.bss)
    .bss                                     0x20000536   Section      209  appsystem.o(.bss)
    .bss                                     0x20000608   Section      264  appadc.o(.bss)
    .bss                                     0x20000710   Section       14  faucet.o(.bss)
    .bss                                     0x2000071e   Section       40  fct.o(.bss)
    .bss                                     0x20000746   Section      273  wifi.o(.bss)
    .bss                                     0x20000858   Section       64  waterflow.o(.bss)
    HEAP                                     0x20000898   Section      256  startup_bat32g137_1.o(HEAP)
    STACK                                    0x20000998   Section     1024  startup_bat32g137_1.o(STACK)

    Global Symbols

    Symbol Name                              Value     Ov Type        Size  Object(Section)

    BuildAttributes$$THM_ISAv3M$S$PE$A:L22$X:L11$S22$IEEE1$IW$USESV6$~STKCKD$USESV7$~SHL$OTIME$ROPI$IEEEX$EBA8$MICROLIB$REQ8$PRES8$EABIv2 0x00000000   Number         0  anon$$obj.o ABSOLUTE
    __ARM_use_no_argv                        0x00000000   Number         0  main.o ABSOLUTE
    __Vectors                                0x00000000   Data           4  startup_bat32g137_1.o(RESET)
    _printf_a                                0x00000000   Number         0  stubs.o ABSOLUTE
    _printf_c                                0x00000000   Number         0  stubs.o ABSOLUTE
    _printf_charcount                        0x00000000   Number         0  stubs.o ABSOLUTE
    _printf_d                                0x00000000   Number         0  stubs.o ABSOLUTE
    _printf_e                                0x00000000   Number         0  stubs.o ABSOLUTE
    _printf_f                                0x00000000   Number         0  stubs.o ABSOLUTE
    _printf_flags                            0x00000000   Number         0  stubs.o ABSOLUTE
    _printf_fp_dec                           0x00000000   Number         0  stubs.o ABSOLUTE
    _printf_fp_hex                           0x00000000   Number         0  stubs.o ABSOLUTE
    _printf_g                                0x00000000   Number         0  stubs.o ABSOLUTE
    _printf_i                                0x00000000   Number         0  stubs.o ABSOLUTE
    _printf_int_dec                          0x00000000   Number         0  stubs.o ABSOLUTE
    _printf_l                                0x00000000   Number         0  stubs.o ABSOLUTE
    _printf_lc                               0x00000000   Number         0  stubs.o ABSOLUTE
    _printf_ll                               0x00000000   Number         0  stubs.o ABSOLUTE
    _printf_lld                              0x00000000   Number         0  stubs.o ABSOLUTE
    _printf_lli                              0x00000000   Number         0  stubs.o ABSOLUTE
    _printf_llo                              0x00000000   Number         0  stubs.o ABSOLUTE
    _printf_llu                              0x00000000   Number         0  stubs.o ABSOLUTE
    _printf_llx                              0x00000000   Number         0  stubs.o ABSOLUTE
    _printf_longlong_dec                     0x00000000   Number         0  stubs.o ABSOLUTE
    _printf_longlong_hex                     0x00000000   Number         0  stubs.o ABSOLUTE
    _printf_longlong_oct                     0x00000000   Number         0  stubs.o ABSOLUTE
    _printf_ls                               0x00000000   Number         0  stubs.o ABSOLUTE
    _printf_mbtowc                           0x00000000   Number         0  stubs.o ABSOLUTE
    _printf_n                                0x00000000   Number         0  stubs.o ABSOLUTE
    _printf_o                                0x00000000   Number         0  stubs.o ABSOLUTE
    _printf_p                                0x00000000   Number         0  stubs.o ABSOLUTE
    _printf_percent                          0x00000000   Number         0  stubs.o ABSOLUTE
    _printf_pre_padding                      0x00000000   Number         0  stubs.o ABSOLUTE
    _printf_return_value                     0x00000000   Number         0  stubs.o ABSOLUTE
    _printf_s                                0x00000000   Number         0  stubs.o ABSOLUTE
    _printf_sizespec                         0x00000000   Number         0  stubs.o ABSOLUTE
    _printf_str                              0x00000000   Number         0  stubs.o ABSOLUTE
    _printf_truncate_signed                  0x00000000   Number         0  stubs.o ABSOLUTE
    _printf_truncate_unsigned                0x00000000   Number         0  stubs.o ABSOLUTE
    _printf_u                                0x00000000   Number         0  stubs.o ABSOLUTE
    _printf_wc                               0x00000000   Number         0  stubs.o ABSOLUTE
    _printf_wctomb                           0x00000000   Number         0  stubs.o ABSOLUTE
    _printf_widthprec                        0x00000000   Number         0  stubs.o ABSOLUTE
    _printf_x                                0x00000000   Number         0  stubs.o ABSOLUTE
    __arm_fini_                               - Undefined Weak Reference
    __cpp_initialize__aeabi_                  - Undefined Weak Reference
    __cxa_finalize                            - Undefined Weak Reference
    _clock_init                               - Undefined Weak Reference
    _microlib_exit                            - Undefined Weak Reference
    _scanf_longlong                           - Undefined Weak Reference
    _scanf_real                               - Undefined Weak Reference
    _scanf_string                             - Undefined Weak Reference
    __Vectors_End                            0x000000c0   Data           0  startup_bat32g137_1.o(RESET)
    __Vectors_Size                           0x000000c0   Number         0  startup_bat32g137_1.o ABSOLUTE
    user_opt_data                            0x000000c0   Data           4  system_bat32g137.o(.ARM.__AT_0x000000C0)
    __main                                   0x000000c5   Thumb Code     0  entry.o(.ARM.Collect$$$$00000000)
    _main_stk                                0x000000c5   Thumb Code     0  entry2.o(.ARM.Collect$$$$00000001)
    _main_scatterload                        0x000000c9   Thumb Code     0  entry5.o(.ARM.Collect$$$$00000004)
    __main_after_scatterload                 0x000000cd   Thumb Code     0  entry5.o(.ARM.Collect$$$$00000004)
    _main_clock                              0x000000cd   Thumb Code     0  entry7b.o(.ARM.Collect$$$$00000008)
    _main_cpp_init                           0x000000cd   Thumb Code     0  entry8b.o(.ARM.Collect$$$$0000000A)
    _main_init                               0x000000cd   Thumb Code     0  entry9a.o(.ARM.Collect$$$$0000000B)
    __rt_lib_shutdown_fini                   0x000000d5   Thumb Code     0  entry12b.o(.ARM.Collect$$$$0000000E)
    __rt_final_cpp                           0x000000d9   Thumb Code     0  entry10a.o(.ARM.Collect$$$$0000000F)
    __rt_final_exit                          0x000000d9   Thumb Code     0  entry11a.o(.ARM.Collect$$$$00000011)
    Reset_Handler                            0x000000dd   Thumb Code     8  startup_bat32g137_1.o(.text)
    NMI_Handler                              0x000000e5   Thumb Code     2  startup_bat32g137_1.o(.text)
    HardFault_Handler                        0x000000e7   Thumb Code     2  startup_bat32g137_1.o(.text)
    MemManage_Handler                        0x000000e9   Thumb Code     2  startup_bat32g137_1.o(.text)
    BusFault_Handler                         0x000000eb   Thumb Code     2  startup_bat32g137_1.o(.text)
    UsageFault_Handler                       0x000000ed   Thumb Code     2  startup_bat32g137_1.o(.text)
    SVC_Handler                              0x000000ef   Thumb Code     2  startup_bat32g137_1.o(.text)
    DebugMon_Handler                         0x000000f1   Thumb Code     2  startup_bat32g137_1.o(.text)
    PendSV_Handler                           0x000000f3   Thumb Code     2  startup_bat32g137_1.o(.text)
    IRQ00_Handler                            0x000000f7   Thumb Code     2  startup_bat32g137_1.o(.text)
    IRQ02_Handler                            0x000000fb   Thumb Code     2  startup_bat32g137_1.o(.text)
    IRQ03_Handler                            0x000000fd   Thumb Code     2  startup_bat32g137_1.o(.text)
    IRQ04_Handler                            0x000000ff   Thumb Code     2  startup_bat32g137_1.o(.text)
    IRQ05_Handler                            0x00000101   Thumb Code     2  startup_bat32g137_1.o(.text)
    IRQ06_Handler                            0x00000103   Thumb Code     2  startup_bat32g137_1.o(.text)
    IRQ09_Handler                            0x00000109   Thumb Code     2  startup_bat32g137_1.o(.text)
    IRQ12_Handler                            0x0000010f   Thumb Code     2  startup_bat32g137_1.o(.text)
    IRQ15_Handler                            0x00000115   Thumb Code     2  startup_bat32g137_1.o(.text)
    IRQ16_Handler                            0x00000117   Thumb Code     2  startup_bat32g137_1.o(.text)
    IRQ17_Handler                            0x00000119   Thumb Code     2  startup_bat32g137_1.o(.text)
    IRQ18_Handler                            0x0000011b   Thumb Code     2  startup_bat32g137_1.o(.text)
    IRQ19_Handler                            0x0000011d   Thumb Code     2  startup_bat32g137_1.o(.text)
    IRQ20_Handler                            0x0000011f   Thumb Code     2  startup_bat32g137_1.o(.text)
    IRQ21_Handler                            0x00000121   Thumb Code     2  startup_bat32g137_1.o(.text)
    IRQ22_Handler                            0x00000123   Thumb Code     2  startup_bat32g137_1.o(.text)
    IRQ23_Handler                            0x00000125   Thumb Code     2  startup_bat32g137_1.o(.text)
    IRQ24_Handler                            0x00000127   Thumb Code     2  startup_bat32g137_1.o(.text)
    IRQ25_Handler                            0x00000129   Thumb Code     2  startup_bat32g137_1.o(.text)
    IRQ27_Handler                            0x0000012d   Thumb Code     2  startup_bat32g137_1.o(.text)
    IRQ28_Handler                            0x0000012f   Thumb Code     2  startup_bat32g137_1.o(.text)
    IRQ29_Handler                            0x00000131   Thumb Code     2  startup_bat32g137_1.o(.text)
    IRQ30_Handler                            0x00000133   Thumb Code     2  startup_bat32g137_1.o(.text)
    IRQ31_Handler                            0x00000135   Thumb Code     2  startup_bat32g137_1.o(.text)
    __aeabi_uidiv                            0x00000141   Thumb Code     0  uidiv.o(.text)
    __aeabi_uidivmod                         0x00000141   Thumb Code    44  uidiv.o(.text)
    __aeabi_idiv                             0x0000016d   Thumb Code     0  idiv.o(.text)
    __aeabi_idivmod                          0x0000016d   Thumb Code    40  idiv.o(.text)
    __aeabi_memcpy                           0x00000195   Thumb Code    36  memcpya.o(.text)
    __aeabi_memcpy4                          0x00000195   Thumb Code     0  memcpya.o(.text)
    __aeabi_memcpy8                          0x00000195   Thumb Code     0  memcpya.o(.text)
    __aeabi_memset                           0x000001b9   Thumb Code    14  memseta.o(.text)
    __aeabi_memset4                          0x000001b9   Thumb Code     0  memseta.o(.text)
    __aeabi_memset8                          0x000001b9   Thumb Code     0  memseta.o(.text)
    __aeabi_memclr                           0x000001c7   Thumb Code     4  memseta.o(.text)
    __aeabi_memclr4                          0x000001c7   Thumb Code     0  memseta.o(.text)
    __aeabi_memclr8                          0x000001c7   Thumb Code     0  memseta.o(.text)
    _memset$wrapper                          0x000001cb   Thumb Code    18  memseta.o(.text)
    strstr                                   0x000001dd   Thumb Code    40  strstr.o(.text)
    strlen                                   0x00000205   Thumb Code    14  strlen.o(.text)
    strcpy                                   0x00000213   Thumb Code    18  strcpy.o(.text)
    __aeabi_uread4                           0x00000225   Thumb Code    20  uread4.o(.text)
    __rt_uread4                              0x00000225   Thumb Code     0  uread4.o(.text)
    _uread4                                  0x00000225   Thumb Code     0  uread4.o(.text)
    __aeabi_uwrite4                          0x00000239   Thumb Code    18  uwrite4.o(.text)
    __rt_uwrite4                             0x00000239   Thumb Code     0  uwrite4.o(.text)
    _uwrite4                                 0x00000239   Thumb Code     0  uwrite4.o(.text)
    __0sscanf                                0x0000024d   Thumb Code    50  __0sscanf.o(.text)
    _scanf_int                               0x00000289   Thumb Code   330  _scanf_int.o(.text)
    __aeabi_fadd                             0x000003d3   Thumb Code   162  fadd.o(.text)
    __aeabi_fsub                             0x00000475   Thumb Code     8  fadd.o(.text)
    __aeabi_frsub                            0x0000047d   Thumb Code     8  fadd.o(.text)
    __aeabi_fmul                             0x00000485   Thumb Code   122  fmul.o(.text)
    __aeabi_fdiv                             0x000004ff   Thumb Code   124  fdiv.o(.text)
    __aeabi_dadd                             0x0000057d   Thumb Code   330  dadd.o(.text)
    __aeabi_dsub                             0x000006c7   Thumb Code    12  dadd.o(.text)
    __aeabi_drsub                            0x000006d3   Thumb Code    12  dadd.o(.text)
    __aeabi_dmul                             0x000006e5   Thumb Code   202  dmul.o(.text)
    __aeabi_ddiv                             0x000007b5   Thumb Code   234  ddiv.o(.text)
    __aeabi_ui2f                             0x000008a5   Thumb Code    14  ffltui.o(.text)
    __aeabi_i2d                              0x000008b5   Thumb Code    34  dflti.o(.text)
    __aeabi_ui2d                             0x000008dd   Thumb Code    24  dfltui.o(.text)
    __aeabi_f2iz                             0x000008f9   Thumb Code    50  ffixi.o(.text)
    __aeabi_f2uiz                            0x0000092b   Thumb Code    40  ffixui.o(.text)
    __aeabi_d2iz                             0x00000955   Thumb Code    62  dfixi.o(.text)
    __aeabi_f2d                              0x0000099d   Thumb Code    40  f2d.o(.text)
    __aeabi_cdcmpeq                          0x000009c5   Thumb Code     0  cdcmple.o(.text)
    __aeabi_cdcmple                          0x000009c5   Thumb Code    38  cdcmple.o(.text)
    __aeabi_cdrcmple                         0x000009ed   Thumb Code    38  cdrcmple.o(.text)
    __aeabi_d2f                              0x00000a15   Thumb Code    56  d2f.o(.text)
    __aeabi_llsl                             0x00000a4d   Thumb Code    32  llshl.o(.text)
    _ll_shift_l                              0x00000a4d   Thumb Code     0  llshl.o(.text)
    __aeabi_llsr                             0x00000a6d   Thumb Code    34  llushr.o(.text)
    _ll_ushift_r                             0x00000a6d   Thumb Code     0  llushr.o(.text)
    __aeabi_lasr                             0x00000a8f   Thumb Code    38  llsshr.o(.text)
    _ll_sshift_r                             0x00000a8f   Thumb Code     0  llsshr.o(.text)
    _chval                                   0x00000ab5   Thumb Code    30  _chval.o(.text)
    __vfscanf_char                           0x00000ae1   Thumb Code    24  scanf_char.o(.text)
    _sgetc                                   0x00000b01   Thumb Code    32  _sgetc.o(.text)
    _sbackspace                              0x00000b21   Thumb Code    36  _sgetc.o(.text)
    __I$use$fp                               0x00000b45   Thumb Code     0  iusefp.o(.text)
    _float_round                             0x00000b45   Thumb Code    16  fepilogue.o(.text)
    _float_epilogue                          0x00000b55   Thumb Code   114  fepilogue.o(.text)
    _double_round                            0x00000bc7   Thumb Code    26  depilogue.o(.text)
    _double_epilogue                         0x00000be1   Thumb Code   164  depilogue.o(.text)
    __ARM_scalbn                             0x00000c85   Thumb Code    44  dscalb.o(.text)
    scalbn                                   0x00000c85   Thumb Code     0  dscalb.o(.text)
    __scatterload                            0x00000cb1   Thumb Code    28  init.o(.text)
    __scatterload_rt2                        0x00000cb1   Thumb Code     0  init.o(.text)
    isspace                                  0x00000cd5   Thumb Code    14  isspace_c.o(.text)
    __vfscanf                                0x00000ce5   Thumb Code   814  _scanf.o(.text)
    _dsqrt                                   0x00001021   Thumb Code   162  dsqrt.o(.text)
    __ctype_lookup                           0x000010c5   Thumb Code    32  ctype_c.o(.text)
    __decompress                             0x000010e9   Thumb Code     0  __dczerorl2.o(.text)
    __decompress1                            0x000010e9   Thumb Code    86  __dczerorl2.o(.text)
    ADCInit                                  0x0000113f   Thumb Code     8  main.o(i.ADCInit)
    ADC_Converse                             0x00001149   Thumb Code   130  adc.o(i.ADC_Converse)
    ADC_Init                                 0x000011d1   Thumb Code   184  adc.o(i.ADC_Init)
    ADC_Start                                0x00001299   Thumb Code     6  drvadc.o(i.ADC_Start)
    ASCII2Hex                                0x000012a5   Thumb Code    90  wifi.o(i.ASCII2Hex)
    AllLedFlashTimes                         0x00001305   Thumb Code   696  windesktop.o(i.AllLedFlashTimes)
    AppADCInit                               0x000015c1   Thumb Code   120  appadc.o(i.AppADCInit)
    AppADCStart                              0x00001655   Thumb Code    12  appadc.o(i.AppADCStart)
    AppADCStop                               0x00001665   Thumb Code    12  appadc.o(i.AppADCStop)
    AppSystemInit                            0x00001675   Thumb Code   104  appsystem.o(i.AppSystemInit)
    Beepring                                 0x000016e9   Thumb Code    86  appsystem.o(i.Beepring)
    CLK_GetCoreFreq                          0x00001749   Thumb Code   122  system_bat32g137.o(i.CLK_GetCoreFreq)
    CalculateTemp                            0x000017f5   Thumb Code   476  drvtds.o(i.CalculateTemp)
    CheckFlushState                          0x00001a79   Thumb Code    72  appsystem.o(i.CheckFlushState)
    ClearLongTimeWorkFlag                    0x00001ac5   Thumb Code    34  appsystem.o(i.ClearLongTimeWorkFlag)
    CloseAllPeripheral                       0x00001af1   Thumb Code   116  appsystem.o(i.CloseAllPeripheral)
    ClosePump                                0x00001b75   Thumb Code    10  appsystem.o(i.ClosePump)
    CmdREGHandle                             0x00001b81   Thumb Code   318  modbus.o(i.CmdREGHandle)
    CreatePage                               0x00001cc9   Thumb Code    12  window.o(i.CreatePage)
    DefWindowProc                            0x00001cd9   Thumb Code   120  window.o(i.DefWindowProc)
    DesktopUpdate                            0x00001d51   Thumb Code   492  appsystem.o(i.DesktopUpdate)
    DisplayError                             0x00001f49   Thumb Code   134  appsystem.o(i.DisplayError)
    DisplayUpdate                            0x00001fd9   Thumb Code    80  appsystem.o(i.DisplayUpdate)
    EQUI_EnterWifiNetwork                    0x0000202d   Thumb Code    32  wifi.o(i.EQUI_EnterWifiNetwork)
    EQUI_SendAlarmInfo                       0x0000205d   Thumb Code    60  wifi.o(i.EQUI_SendAlarmInfo)
    EQUI_SendWifiNetwork                     0x000020a1   Thumb Code    26  wifi.o(i.EQUI_SendWifiNetwork)
    EQUI_UpdataState                         0x000020c1   Thumb Code   864  wifi.o(i.EQUI_UpdataState)
    EnterAutoFlushing                        0x00002431   Thumb Code    64  appsystem.o(i.EnterAutoFlushing)
    EnterBackFlowMode                        0x00002481   Thumb Code    48  appsystem.o(i.EnterBackFlowMode)
    EnterErrorMode                           0x000024c1   Thumb Code    36  appsystem.o(i.EnterErrorMode)
    EnterFCTMode                             0x000024e9   Thumb Code    30  appsystem.o(i.EnterFCTMode)
    EnterFactoryMode                         0x00002511   Thumb Code    80  factorymode.o(i.EnterFactoryMode)
    EnterLiveMode                            0x00002569   Thumb Code    20  appsystem.o(i.EnterLiveMode)
    EnterLockWaterMode                       0x00002581   Thumb Code    36  appsystem.o(i.EnterLockWaterMode)
    EnterLongTimeWork                        0x000025a9   Thumb Code    48  appsystem.o(i.EnterLongTimeWork)
    EnterManualFlush                         0x000025dd   Thumb Code    54  appsystem.o(i.EnterManualFlush)
    EnterPowerOnFlushing                     0x00002625   Thumb Code    54  appsystem.o(i.EnterPowerOnFlushing)
    EnterProc                                0x0000266d   Thumb Code   434  appsystem.o(i.EnterProc)
    EnterStandby                             0x00002829   Thumb Code    10  appsystem.o(i.EnterStandby)
    EnterWorkMode                            0x00002839   Thumb Code    54  appsystem.o(i.EnterWorkMode)
    ExitAutoFlushing                         0x0000287d   Thumb Code    46  appsystem.o(i.ExitAutoFlushing)
    ExitBackFlowMode                         0x000028b5   Thumb Code    54  appsystem.o(i.ExitBackFlowMode)
    ExitErrorMode                            0x000028f5   Thumb Code    12  appsystem.o(i.ExitErrorMode)
    ExitFCTMode                              0x00002905   Thumb Code    38  appsystem.o(i.ExitFCTMode)
    ExitFactoryMode                          0x00002939   Thumb Code    56  factorymode.o(i.ExitFactoryMode)
    ExitFilterFast                           0x00002975   Thumb Code    38  factorymode.o(i.ExitFilterFast)
    ExitGasDetection                         0x000029a5   Thumb Code    46  factorymode.o(i.ExitGasDetection)
    ExitLiveMode                             0x000029dd   Thumb Code    32  appsystem.o(i.ExitLiveMode)
    ExitLockWaterMode                        0x00002a05   Thumb Code    12  appsystem.o(i.ExitLockWaterMode)
    ExitLongTimeWork                         0x00002a15   Thumb Code    22  appsystem.o(i.ExitLongTimeWork)
    ExitManualFlush                          0x00002a31   Thumb Code    86  appsystem.o(i.ExitManualFlush)
    ExitPowerOnFlushing                      0x00002a91   Thumb Code    44  appsystem.o(i.ExitPowerOnFlushing)
    ExitProc                                 0x00002ac5   Thumb Code   298  appsystem.o(i.ExitProc)
    ExitTimer                                0x00002bf9   Thumb Code    36  appsystem.o(i.ExitTimer)
    ExitWaterDetection                       0x00002c1d   Thumb Code    52  factorymode.o(i.ExitWaterDetection)
    ExitWorkMode                             0x00002c59   Thumb Code    78  appsystem.o(i.ExitWorkMode)
    ExternalInterruptInit                    0x00002cb5   Thumb Code    52  waterflow.o(i.ExternalInterruptInit)
    FCT_FaucetDataProc                       0x00002ce9   Thumb Code    40  fct.o(i.FCT_FaucetDataProc)
    FCT_LeakRes                              0x00002d1d   Thumb Code    34  fct.o(i.FCT_LeakRes)
    FCT_ModeInit                             0x00002d49   Thumb Code   126  fct.o(i.FCT_ModeInit)
    FCT_Monitor                              0x00002dd9   Thumb Code   274  fct.o(i.FCT_Monitor)
    FCT_NTC2Res                              0x00002f09   Thumb Code    34  fct.o(i.FCT_NTC2Res)
    FCT_NTCRes                               0x00002f35   Thumb Code    34  fct.o(i.FCT_NTCRes)
    FCT_PumpADC                              0x00002f61   Thumb Code    34  fct.o(i.FCT_PumpADC)
    FCT_netTDSRes                            0x00002f8d   Thumb Code    50  fct.o(i.FCT_netTDSRes)
    FCT_rawTDSRes                            0x00002fc9   Thumb Code    50  fct.o(i.FCT_rawTDSRes)
    FLASH_ErasePage                          0x00003005   Thumb Code    12  sim_eeprom.o(i.FLASH_ErasePage)
    Faucet_Display                           0x00003011   Thumb Code   304  faucet.o(i.Faucet_Display)
    Faucet_PowneOnDisplay                    0x0000314d   Thumb Code   126  faucet.o(i.Faucet_PowneOnDisplay)
    Faucet_proc                              0x000031d5   Thumb Code   112  faucet.o(i.Faucet_proc)
    Faucet_workstate                         0x00003249   Thumb Code   174  faucet.o(i.Faucet_workstate)
    FilterDetection                          0x00003301   Thumb Code    72  factorymode.o(i.FilterDetection)
    FilterFast                               0x0000335d   Thumb Code   178  factorymode.o(i.FilterFast)
    FilterLifeCalculate                      0x0000342d   Thumb Code   160  appsystem.o(i.FilterLifeCalculate)
    FilterLifeLive                           0x000034e5   Thumb Code   124  appsystem.o(i.FilterLifeLive)
    FilterReset_PCB                          0x00003581   Thumb Code    26  appsystem.o(i.FilterReset_PCB)
    FilterReset_RO                           0x000035a1   Thumb Code    26  appsystem.o(i.FilterReset_RO)
    FlashDataRead                            0x000035c1   Thumb Code   264  sim_eeprom.o(i.FlashDataRead)
    FlashDataSave                            0x000036c9   Thumb Code   150  sim_eeprom.o(i.FlashDataSave)
    GasDetection                             0x00003761   Thumb Code    48  factorymode.o(i.GasDetection)
    GetADCValues                             0x0000379d   Thumb Code    22  drvadc.o(i.GetADCValues)
    GetAllError                              0x000037b9   Thumb Code   212  wifi.o(i.GetAllError)
    GetChannalADCVal                         0x0000388d   Thumb Code   232  appadc.o(i.GetChannalADCVal)
    GetCommData                              0x0000397d   Thumb Code    44  wifi.o(i.GetCommData)
    GetEncryptionFlag                        0x000039a9   Thumb Code    12  wifi.o(i.GetEncryptionFlag)
    GetFaucetData                            0x000039b5   Thumb Code    76  appuart.o(i.GetFaucetData)
    GetFlowMeterPulse                        0x00003a11   Thumb Code    76  waterflow.o(i.GetFlowMeterPulse)
    GetHVSstate                              0x00003a61   Thumb Code    90  appsystem.o(i.GetHVSstate)
    GetKeyState                              0x00003ac9   Thumb Code   344  keyscan.o(i.GetKeyState)
    GetLeakADC                               0x00003c31   Thumb Code    70  appsystem.o(i.GetLeakADC)
    GetLeakRes                               0x00003c89   Thumb Code    52  fct.o(i.GetLeakRes)
    GetMessage                               0x00003cc5   Thumb Code   162  system.o(i.GetMessage)
    GetModbusCRC                             0x00003d6d   Thumb Code    60  modbus.o(i.GetModbusCRC)
    GetNTCResVal                             0x00003db1   Thumb Code    52  drvtds.o(i.GetNTCResVal)
    GetNTCTemp                               0x00003ded   Thumb Code   144  drvtds.o(i.GetNTCTemp)
    GetNTCTemp2                              0x00003e99   Thumb Code   144  drvtds.o(i.GetNTCTemp2)
    GetOperationMode                         0x00003f45   Thumb Code    66  wifi.o(i.GetOperationMode)
    GetPumpADC                               0x00003f89   Thumb Code    96  appsystem.o(i.GetPumpADC)
    GetSum                                   0x00004015   Thumb Code    28  wifi.o(i.GetSum)
    GetSysSeting                             0x00004031   Thumb Code   358  savedata.o(i.GetSysSeting)
    GetSystemTime                            0x000041a9   Thumb Code    16  system.o(i.GetSystemTime)
    GetTDSRes                                0x000041bd   Thumb Code    52  fct.o(i.GetTDSRes)
    GetTDS_net                               0x000041f9   Thumb Code    10  drvtds.o(i.GetTDS_net)
    GetTDS_raw                               0x00004203   Thumb Code    10  drvtds.o(i.GetTDS_raw)
    GetTDS_temp                              0x0000420d   Thumb Code    10  drvtds.o(i.GetTDS_temp)
    GetVoltageValue                          0x00004217   Thumb Code    36  appadc.o(i.GetVoltageValue)
    GetWifiData                              0x0000423d   Thumb Code    76  appuart.o(i.GetWifiData)
    Getkey                                   0x00004299   Thumb Code    36  keyscan.o(i.Getkey)
    GetnetTDS                                0x000042bd   Thumb Code    68  drvtds.o(i.GetnetTDS)
    GetrawTDS                                0x00004309   Thumb Code    58  drvtds.o(i.GetrawTDS)
    HkeytoVkey                               0x0000434d   Thumb Code    88  keyscan.o(i.HkeytoVkey)
    I2C_ReadKey                              0x000043a5   Thumb Code   128  drvi2c.o(i.I2C_ReadKey)
    I2C_SendDisplay                          0x0000442d   Thumb Code    50  drvi2c.o(i.I2C_SendDisplay)
    IIC_Init                                 0x0000445f   Thumb Code    32  drvi2c.o(i.IIC_Init)
    IIC_RecvACK                              0x0000447f   Thumb Code    68  drvi2c.o(i.IIC_RecvACK)
    IIC_RecvByte                             0x000044c3   Thumb Code   108  drvi2c.o(i.IIC_RecvByte)
    IIC_SendACK                              0x0000452f   Thumb Code    56  drvi2c.o(i.IIC_SendACK)
    IIC_SendByte                             0x00004567   Thumb Code   108  drvi2c.o(i.IIC_SendByte)
    IIC_Start                                0x000045d3   Thumb Code    54  drvi2c.o(i.IIC_Start)
    IIC_Stop                                 0x00004609   Thumb Code    40  drvi2c.o(i.IIC_Stop)
    INTP_Init                                0x000049cd   Thumb Code  1260  intp.o(i.INTP_Init)
    INTP_Start                               0x00004ec5   Thumb Code    58  intp.o(i.INTP_Start)
    IOInit                                   0x00004eff   Thumb Code   296  ioinit.o(i.IOInit)
    IRQ26_Handler                            0x00005029   Thumb Code   112  waterflow.o(i.IRQ26_Handler)
    KillTimer                                0x00005191   Thumb Code   118  system.o(i.KillTimer)
    LEDLight                                 0x0000520d   Thumb Code    86  appsystem.o(i.LEDLight)
    MA                                       0x00005391   Thumb Code    46  appadc.o(i.MA)
    ModbusProc                               0x000053c1   Thumb Code   316  modbus.o(i.ModbusProc)
    Modbus_SetReg                            0x00005501   Thumb Code    10  modbus.o(i.Modbus_SetReg)
    MonitorAppADC                            0x00005515   Thumb Code   176  appadc.o(i.MonitorAppADC)
    MonitorBigData                           0x000055c9   Thumb Code    92  wifi.o(i.MonitorBigData)
    MonitorHVS_Faucet                        0x00005629   Thumb Code   306  appsystem.o(i.MonitorHVS_Faucet)
    MonitorState                             0x00005769   Thumb Code   154  appsystem.o(i.MonitorState)
    MonitorTDS                               0x00005815   Thumb Code   150  drvtds.o(i.MonitorTDS)
    MonitorTimer                             0x000058b9   Thumb Code   266  system.o(i.MonitorTimer)
    MonitorWater                             0x000059c9   Thumb Code   478  appsystem.o(i.MonitorWater)
    MonitrorAlarm                            0x00005bd1   Thumb Code   194  wifi.o(i.MonitrorAlarm)
    NetworkTimer                             0x00005cb1   Thumb Code   142  wifi.o(i.NetworkTimer)
    OpenPump                                 0x00005d4d   Thumb Code    38  appsystem.o(i.OpenPump)
    OpenPump_InletValve2                     0x00005d7d   Thumb Code    16  appsystem.o(i.OpenPump_InletValve2)
    PORT_ClrBit                              0x00005d8d   Thumb Code    32  gpio.o(i.PORT_ClrBit)
    PORT_GetBit                              0x00005db1   Thumb Code    26  gpio.o(i.PORT_GetBit)
    PORT_Init                                0x00005dd1   Thumb Code   402  gpio.o(i.PORT_Init)
    PORT_SetBit                              0x00005f69   Thumb Code    32  gpio.o(i.PORT_SetBit)
    ParsingDisplayData                       0x00005f8d   Thumb Code    54  appsystem.o(i.ParsingDisplayData)
    PowerDownCheck                           0x00005fc5   Thumb Code    86  appsystem.o(i.PowerDownCheck)
    PowerOnDisplay                           0x00006029   Thumb Code   100  appsystem.o(i.PowerOnDisplay)
    ResetPowerOnFlushFlag                    0x00006099   Thumb Code    14  appsystem.o(i.ResetPowerOnFlushFlag)
    RestFilter                               0x000060ad   Thumb Code    24  winfilterset.o(i.RestFilter)
    RestoreFactory                           0x000060c5   Thumb Code   266  appsystem.o(i.RestoreFactory)
    ReturnWriteMultiRegOK                    0x000061dd   Thumb Code    66  modbus.o(i.ReturnWriteMultiRegOK)
    SYSClockInit                             0x00006221   Thumb Code    60  sys_clock.o(i.SYSClockInit)
    SYSInit                                  0x00006269   Thumb Code   134  system.o(i.SYSInit)
    SYS_Init                                 0x000062fd   Thumb Code    48  main.o(i.SYS_Init)
    SaveSysSeting                            0x0000632d   Thumb Code   358  savedata.o(i.SaveSysSeting)
    SendMessage                              0x000064a5   Thumb Code   102  system.o(i.SendMessage)
    SendModbusError                          0x00006511   Thumb Code    54  modbus.o(i.SendModbusError)
    SendModbusRegData                        0x00006549   Thumb Code   136  modbus.o(i.SendModbusRegData)
    SetAutoFlushFlag                         0x000065d5   Thumb Code    20  appsystem.o(i.SetAutoFlushFlag)
    SetBoosterPump                           0x000065ed   Thumb Code   144  appsystem.o(i.SetBoosterPump)
    SetInletValve                            0x0000667d   Thumb Code    28  appsystem.o(i.SetInletValve)
    SetInletValve2                           0x00006699   Thumb Code    28  appsystem.o(i.SetInletValve2)
    SetSystemTime                            0x000066b5   Thumb Code    16  system.o(i.SetSystemTime)
    SetTDSUpdataEN                           0x000066c9   Thumb Code     6  drvtds.o(i.SetTDSUpdataEN)
    SetWasteWaterValve                       0x000066d5   Thumb Code    28  appsystem.o(i.SetWasteWaterValve)
    Small2BigMode                            0x000066f1   Thumb Code    12  modbus.o(i.Small2BigMode)
    SmallMode2BitMode                        0x000066fd   Thumb Code    30  wifi.o(i.SmallMode2BitMode)
    Standby                                  0x0000671d   Thumb Code    58  appsystem.o(i.Standby)
    StandbyRestart                           0x00006761   Thumb Code    48  appsystem.o(i.StandbyRestart)
    SyStemTimeTask                           0x0000679d   Thumb Code   232  system.o(i.SyStemTimeTask)
    SysSetingInit                            0x00006889   Thumb Code    96  savedata.o(i.SysSetingInit)
    SysTick_Handler                          0x000068f5   Thumb Code   398  sys_clock.o(i.SysTick_Handler)
    SystemCoreClockUpdate                    0x00006aad   Thumb Code    12  system_bat32g137.o(i.SystemCoreClockUpdate)
    SystemInit                               0x00006abd   Thumb Code    88  system_bat32g137.o(i.SystemInit)
    TaskKeySan                               0x00006b31   Thumb Code   134  keyscan.o(i.TaskKeySan)
    TaskProcess                              0x00006bb9   Thumb Code    52  task.o(i.TaskProcess)
    TemperatureCompensation                  0x00006bf1   Thumb Code   128  drvtds.o(i.TemperatureCompensation)
    TimeSetEvent                             0x00006c7d   Thumb Code   200  system.o(i.TimeSetEvent)
    UART0_BaudRate                           0x00006d49   Thumb Code    90  sci.o(i.UART0_BaudRate)
    UART0_Init                               0x00006dad   Thumb Code   292  sci.o(i.UART0_Init)
    UART0_Start                              0x00006ef9   Thumb Code    76  sci.o(i.UART0_Start)
    UART2_BaudRate                           0x00006f49   Thumb Code    72  sci.o(i.UART2_BaudRate)
    UART2_Init                               0x00006f99   Thumb Code   298  sci.o(i.UART2_Init)
    UART2_Start                              0x000070ed   Thumb Code    76  sci.o(i.UART2_Start)
    UART_BaudRateCal                         0x0000713d   Thumb Code   216  sci.o(i.UART_BaudRateCal)
    UartSendDisplayData                      0x00007221   Thumb Code    72  appuart.o(i.UartSendDisplayData)
    UartSendFaucetData                       0x00007271   Thumb Code    72  appuart.o(i.UartSendFaucetData)
    UartSendWifiData                         0x000072c1   Thumb Code    72  appuart.o(i.UartSendWifiData)
    UpdataFlowMeterWaterVolume               0x00007311   Thumb Code   422  waterflow.o(i.UpdataFlowMeterWaterVolume)
    UpdateFilterLife                         0x000075dd   Thumb Code   154  appsystem.o(i.UpdateFilterLife)
    WDT_Restart                              0x0000783d   Thumb Code     8  wdt.o(i.WDT_Restart)
    WIFI_AddData2protocol                    0x00007849   Thumb Code   174  wifi.o(i.WIFI_AddData2protocol)
    WIFI_ControlHand                         0x000078fd   Thumb Code   200  wifi.o(i.WIFI_ControlHand)
    WIFI_GetWifiStatus                       0x000079cd   Thumb Code   126  wifi.o(i.WIFI_GetWifiStatus)
    WIFI_SendTypeID                          0x00007a5d   Thumb Code    90  wifi.o(i.WIFI_SendTypeID)
    WIFI_SetBigDataHeartbeat                 0x00007ac1   Thumb Code    82  wifi.o(i.WIFI_SetBigDataHeartbeat)
    WIFI_SetHeartbeat                        0x00007b21   Thumb Code    88  wifi.o(i.WIFI_SetHeartbeat)
    WIFI_SetPriFilterReset                   0x00007b85   Thumb Code    18  wifi.o(i.WIFI_SetPriFilterReset)
    WIFI_SetRoFilterReset                    0x00007b97   Thumb Code    18  wifi.o(i.WIFI_SetRoFilterReset)
    WIFI_SetTime                             0x00007ba9   Thumb Code   106  wifi.o(i.WIFI_SetTime)
    WIIF_SendEquiVersion                     0x00007c15   Thumb Code    70  wifi.o(i.WIIF_SendEquiVersion)
    WaterCounter                             0x00007c89   Thumb Code    72  appsystem.o(i.WaterCounter)
    WaterDetection                           0x00007cdd   Thumb Code    54  factorymode.o(i.WaterDetection)
    WifiMsgProc                              0x00007d25   Thumb Code   472  wifi.o(i.WifiMsgProc)
    WinDesktopInit                           0x00007f09   Thumb Code    38  windesktop.o(i.WinDesktopInit)
    WinFilterSetInit                         0x00007f3d   Thumb Code    40  winfilterset.o(i.WinFilterSetInit)
    WinInit                                  0x00007f71   Thumb Code    32  window.o(i.WinInit)
    WinPageSwitch                            0x00007fad   Thumb Code    68  window.o(i.WinPageSwitch)
    WinTimerOut                              0x00008125   Thumb Code    52  appsystem.o(i.WinTimerOut)
    WndProc                                  0x0000815d   Thumb Code   136  window.o(i.WndProc)
    WriteRegData                             0x000081f1   Thumb Code    46  modbus.o(i.WriteRegData)
    __ARM_clz                                0x00008225   Thumb Code    46  depilogue.o(i.__ARM_clz)
    __ARM_common_switch8                     0x00008253   Thumb Code    28  system_bat32g137.o(i.__ARM_common_switch8)
    __ARM_fpclassify                         0x00008271   Thumb Code    40  fpclassify.o(i.__ARM_fpclassify)
    __kernel_poly                            0x00008405   Thumb Code   172  poly.o(i.__kernel_poly)
    __mathlib_dbl_divzero                    0x000084b1   Thumb Code    16  dunder.o(i.__mathlib_dbl_divzero)
    __mathlib_dbl_infnan2                    0x000084c5   Thumb Code     8  dunder.o(i.__mathlib_dbl_infnan2)
    __mathlib_dbl_invalid                    0x000084cd   Thumb Code    16  dunder.o(i.__mathlib_dbl_invalid)
    __mathlib_dbl_overflow                   0x000084dd   Thumb Code    16  dunder.o(i.__mathlib_dbl_overflow)
    __mathlib_dbl_underflow                  0x000084f1   Thumb Code    14  dunder.o(i.__mathlib_dbl_underflow)
    __scatterload_copy                       0x00008505   Thumb Code    14  handlers.o(i.__scatterload_copy)
    __scatterload_null                       0x00008513   Thumb Code     2  handlers.o(i.__scatterload_null)
    __scatterload_zeroinit                   0x00008515   Thumb Code    14  handlers.o(i.__scatterload_zeroinit)
    __set_errno                              0x00008525   Thumb Code     6  errno.o(i.__set_errno)
    bubble_sort                              0x00008531   Thumb Code    66  appadc.o(i.bubble_sort)
    delayms                                  0x00008573   Thumb Code   112  delay.o(i.delayms)
    delayopenpump                            0x000085e3   Thumb Code    10  factorymode.o(i.delayopenpump)
    delayus                                  0x000085ed   Thumb Code    96  delay.o(i.delayus)
    fifo_init                                0x0000864d   Thumb Code    12  fifo.o(i.fifo_init)
    free                                     0x0000865d   Thumb Code    80  malloc.o(i.free)
    IRQ01_Handler                            0x000086b1   Thumb Code     0  waterflow.o(i.intp_0_6_interrupt)
    intp_0_6_interrupt                       0x000086b1   Thumb Code   136  waterflow.o(i.intp_0_6_interrupt)
    mReadFlash                               0x00008749   Thumb Code    24  sim_eeprom.o(i.mReadFlash)
    mWriteFlash                              0x00008761   Thumb Code    22  sim_eeprom.o(i.mWriteFlash)
    main                                     0x00008779   Thumb Code   156  main.o(i.main)
    malloc                                   0x00008825   Thumb Code    92  malloc.o(i.malloc)
    pow                                      0x00008891   Thumb Code  2548  pow.o(i.pow)
    powerDownSave                            0x0000928d   Thumb Code    48  appsystem.o(i.powerDownSave)
    sqrt                                     0x000092c9   Thumb Code    66  sqrt.o(i.sqrt)
    IRQ11_Handler                            0x00009311   Thumb Code     0  appuart.o(i.uart0_interrupt_receive)
    uart0_interrupt_receive                  0x00009311   Thumb Code    86  appuart.o(i.uart0_interrupt_receive)
    IRQ10_Handler                            0x00009381   Thumb Code     0  appuart.o(i.uart0_interrupt_send)
    uart0_interrupt_send                     0x00009381   Thumb Code    78  appuart.o(i.uart0_interrupt_send)
    IRQ14_Handler                            0x000093d9   Thumb Code     0  appuart.o(i.uart1_interrupt_receive)
    uart1_interrupt_receive                  0x000093d9   Thumb Code    86  appuart.o(i.uart1_interrupt_receive)
    IRQ13_Handler                            0x00009449   Thumb Code     0  appuart.o(i.uart1_interrupt_send)
    uart1_interrupt_send                     0x00009449   Thumb Code    78  appuart.o(i.uart1_interrupt_send)
    IRQ08_Handler                            0x000094a1   Thumb Code     0  appuart.o(i.uart2_interrupt_receive)
    uart2_interrupt_receive                  0x000094a1   Thumb Code    86  appuart.o(i.uart2_interrupt_receive)
    IRQ07_Handler                            0x00009511   Thumb Code     0  appuart.o(i.uart2_interrupt_send)
    uart2_interrupt_send                     0x00009511   Thumb Code    78  appuart.o(i.uart2_interrupt_send)
    EraseChip                                0x00009569   Thumb Code    58  flash.o(ram_fetch_code)
    EraseSector                              0x000095a3   Thumb Code    78  flash.o(ram_fetch_code)
    ProgramPage                              0x000095f1   Thumb Code    74  flash.o(ram_fetch_code)
    FaucetTest                               0x00009640   Data          21  fct.o(.constdata)
    __mathlib_zero                           0x000096e0   Data           8  qnan.o(.constdata)
    __ctype_categories                       0x000096e8   Data          64  ctype_c.o(.constdata)
    Region$$Table$$Base                      0x0000976c   Number         0  anon$$obj.o(Region$$Table)
    Region$$Table$$Limit                     0x0000978c   Number         0  anon$$obj.o(Region$$Table)
    SystemCoreClock                          0x20000000   Data           4  system_bat32g137.o(.data)
    uarttimeout                              0x20000004   Data           1  appuart.o(.data)
    uart1timeout                             0x20000005   Data           1  appuart.o(.data)
    uart2timeout                             0x20000006   Data           1  appuart.o(.data)
    sSystemTime                              0x20000016   Data           4  system.o(.data)
    TaskComps                                0x2000001c   Data         120  task.o(.data)
    spWinHand                                0x20000094   Data           4  window.o(.data)
    spWinFatherHand                          0x20000098   Data           4  window.o(.data)
    equistate                                0x200000a7   Data           1  windesktop.o(.data)
    longkeycount                             0x200000a8   Data           1  windesktop.o(.data)
    gTDSTemp                                 0x200000ac   Data           2  drvtds.o(.data)
    gTDSTemp2                                0x200000ae   Data           2  drvtds.o(.data)
    tdsbefore1mincount                       0x200000b0   Data           2  drvtds.o(.data)
    UpdateEN                                 0x200000b2   Data           1  drvtds.o(.data)
    UartDispProc                             0x200000b8   Data           4  appsystem.o(.data)
    UartFaucetProc                           0x200000bc   Data           4  appsystem.o(.data)
    UartWifiProc                             0x200000c0   Data           4  appsystem.o(.data)
    gDisplayReg                              0x200000c4   Data           2  appsystem.o(.data)
    leakflag                                 0x200000c6   Data           1  appsystem.o(.data)
    pumpAflag                                0x200000c7   Data           1  appsystem.o(.data)
    userstaflashblk                          0x200000e8   Data           4  savedata.o(.data)
    REG_ADDR_MAX                             0x200000fc   Data           1  modbus.o(.data)
    sendcnt                                  0x20000104   Data           1  fct.o(.data)
    SysTick1ms                               0x20000118   Data           4  waterflow.o(.data)
    SysTick1msD                              0x2000011c   Data           2  waterflow.o(.data)
    SysTick1msC                              0x20000120   Data           4  waterflow.o(.data)
    __microlib_freelist                      0x20000128   Data           4  mvars.o(.data)
    __microlib_freelist_initialised          0x2000012c   Data           4  mvars.o(.data)
    fifo_queue                               0x2000039e   Data         106  fifo.o(.bss)
    TaskTimer                                0x20000408   Data         210  system.o(.bss)
    MsgQueue                                 0x200004da   Data          46  system.o(.bss)
    spWinBuff                                0x20000508   Data          24  window.o(.bss)
    gWinFilterSet                            0x20000520   Data          11  winfilterset.o(.bss)
    gWinDesktop                              0x2000052b   Data          11  windesktop.o(.bss)
    RecBuff                                  0x20000536   Data         100  appsystem.o(.bss)
    systemseting                             0x2000059a   Data          37  appsystem.o(.bss)
    gReg                                     0x200005bf   Data          72  appsystem.o(.bss)
    gAppadc                                  0x20000608   Data         264  appadc.o(.bss)
    faucet                                   0x20000710   Data          14  faucet.o(.bss)
    fctReg                                   0x2000071e   Data          40  fct.o(.bss)
    WIFI_Sendbuf                             0x20000746   Data         260  wifi.o(.bss)
    gWifiSet                                 0x2000084a   Data          13  wifi.o(.bss)
    FlowMeter1st                             0x20000858   Data          32  waterflow.o(.bss)
    FlowMeter2nd                             0x20000878   Data          32  waterflow.o(.bss)
    __heap_base                              0x20000898   Data           0  startup_bat32g137_1.o(HEAP)
    __heap_limit                             0x20000998   Data           0  startup_bat32g137_1.o(HEAP)
    __initial_sp                             0x20000d98   Data           0  startup_bat32g137_1.o(STACK)



==============================================================================

Memory Map of the image

  Image Entry point : 0x000000c5

  Load Region LR_IROM1 (Base: 0x00000000, Size: 0x000098c0, Max: 0x00020000, ABSOLUTE, COMPRESSED[0x000097f4])

    Execution Region ER_IROM1 (Exec base: 0x00000000, Load base: 0x00000000, Size: 0x0000978c, Max: 0x00020000, ABSOLUTE)

    Exec Addr    Load Addr    Size         Type   Attr      Idx    E Section Name        Object

    0x00000000   0x00000000   0x000000c0   Data   RO           74    RESET               startup_bat32g137_1.o
    0x000000c0   0x000000c0   0x00000004   Data   RO            7    .ARM.__AT_0x000000C0  system_bat32g137.o
    0x000000c4   0x000000c4   0x00000000   Code   RO         3494  * .ARM.Collect$$$$00000000  mc_p.l(entry.o)
    0x000000c4   0x000000c4   0x00000004   Code   RO         3639    .ARM.Collect$$$$00000001  mc_p.l(entry2.o)
    0x000000c8   0x000000c8   0x00000004   Code   RO         3642    .ARM.Collect$$$$00000004  mc_p.l(entry5.o)
    0x000000cc   0x000000cc   0x00000000   Code   RO         3644    .ARM.Collect$$$$00000008  mc_p.l(entry7b.o)
    0x000000cc   0x000000cc   0x00000000   Code   RO         3646    .ARM.Collect$$$$0000000A  mc_p.l(entry8b.o)
    0x000000cc   0x000000cc   0x00000008   Code   RO         3647    .ARM.Collect$$$$0000000B  mc_p.l(entry9a.o)
    0x000000d4   0x000000d4   0x00000004   Code   RO         3654    .ARM.Collect$$$$0000000E  mc_p.l(entry12b.o)
    0x000000d8   0x000000d8   0x00000000   Code   RO         3649    .ARM.Collect$$$$0000000F  mc_p.l(entry10a.o)
    0x000000d8   0x000000d8   0x00000000   Code   RO         3651    .ARM.Collect$$$$00000011  mc_p.l(entry11a.o)
    0x000000d8   0x000000d8   0x00000004   Code   RO         3640    .ARM.Collect$$$$00002712  mc_p.l(entry2.o)
    0x000000dc   0x000000dc   0x00000064   Code   RO           75    .text               startup_bat32g137_1.o
    0x00000140   0x00000140   0x0000002c   Code   RO         3497    .text               mc_p.l(uidiv.o)
    0x0000016c   0x0000016c   0x00000028   Code   RO         3499    .text               mc_p.l(idiv.o)
    0x00000194   0x00000194   0x00000024   Code   RO         3501    .text               mc_p.l(memcpya.o)
    0x000001b8   0x000001b8   0x00000024   Code   RO         3503    .text               mc_p.l(memseta.o)
    0x000001dc   0x000001dc   0x00000028   Code   RO         3507    .text               mc_p.l(strstr.o)
    0x00000204   0x00000204   0x0000000e   Code   RO         3509    .text               mc_p.l(strlen.o)
    0x00000212   0x00000212   0x00000012   Code   RO         3511    .text               mc_p.l(strcpy.o)
    0x00000224   0x00000224   0x00000014   Code   RO         3572    .text               mc_p.l(uread4.o)
    0x00000238   0x00000238   0x00000012   Code   RO         3574    .text               mc_p.l(uwrite4.o)
    0x0000024a   0x0000024a   0x00000002   PAD
    0x0000024c   0x0000024c   0x0000003c   Code   RO         3576    .text               mc_p.l(__0sscanf.o)
    0x00000288   0x00000288   0x0000014a   Code   RO         3578    .text               mc_p.l(_scanf_int.o)
    0x000003d2   0x000003d2   0x000000b2   Code   RO         3580    .text               mf_p.l(fadd.o)
    0x00000484   0x00000484   0x0000007a   Code   RO         3582    .text               mf_p.l(fmul.o)
    0x000004fe   0x000004fe   0x0000007c   Code   RO         3584    .text               mf_p.l(fdiv.o)
    0x0000057a   0x0000057a   0x00000002   PAD
    0x0000057c   0x0000057c   0x00000168   Code   RO         3586    .text               mf_p.l(dadd.o)
    0x000006e4   0x000006e4   0x000000d0   Code   RO         3588    .text               mf_p.l(dmul.o)
    0x000007b4   0x000007b4   0x000000f0   Code   RO         3590    .text               mf_p.l(ddiv.o)
    0x000008a4   0x000008a4   0x0000000e   Code   RO         3592    .text               mf_p.l(ffltui.o)
    0x000008b2   0x000008b2   0x00000002   PAD
    0x000008b4   0x000008b4   0x00000028   Code   RO         3594    .text               mf_p.l(dflti.o)
    0x000008dc   0x000008dc   0x0000001c   Code   RO         3596    .text               mf_p.l(dfltui.o)
    0x000008f8   0x000008f8   0x00000032   Code   RO         3598    .text               mf_p.l(ffixi.o)
    0x0000092a   0x0000092a   0x00000028   Code   RO         3600    .text               mf_p.l(ffixui.o)
    0x00000952   0x00000952   0x00000002   PAD
    0x00000954   0x00000954   0x00000048   Code   RO         3602    .text               mf_p.l(dfixi.o)
    0x0000099c   0x0000099c   0x00000028   Code   RO         3604    .text               mf_p.l(f2d.o)
    0x000009c4   0x000009c4   0x00000028   Code   RO         3606    .text               mf_p.l(cdcmple.o)
    0x000009ec   0x000009ec   0x00000028   Code   RO         3608    .text               mf_p.l(cdrcmple.o)
    0x00000a14   0x00000a14   0x00000038   Code   RO         3610    .text               mf_p.l(d2f.o)
    0x00000a4c   0x00000a4c   0x00000020   Code   RO         3657    .text               mc_p.l(llshl.o)
    0x00000a6c   0x00000a6c   0x00000022   Code   RO         3659    .text               mc_p.l(llushr.o)
    0x00000a8e   0x00000a8e   0x00000026   Code   RO         3661    .text               mc_p.l(llsshr.o)
    0x00000ab4   0x00000ab4   0x0000001e   Code   RO         3672    .text               mc_p.l(_chval.o)
    0x00000ad2   0x00000ad2   0x00000002   PAD
    0x00000ad4   0x00000ad4   0x0000002c   Code   RO         3674    .text               mc_p.l(scanf_char.o)
    0x00000b00   0x00000b00   0x00000044   Code   RO         3676    .text               mc_p.l(_sgetc.o)
    0x00000b44   0x00000b44   0x00000000   Code   RO         3678    .text               mc_p.l(iusefp.o)
    0x00000b44   0x00000b44   0x00000082   Code   RO         3679    .text               mf_p.l(fepilogue.o)
    0x00000bc6   0x00000bc6   0x000000be   Code   RO         3681    .text               mf_p.l(depilogue.o)
    0x00000c84   0x00000c84   0x0000002c   Code   RO         3685    .text               mf_p.l(dscalb.o)
    0x00000cb0   0x00000cb0   0x00000024   Code   RO         3689    .text               mc_p.l(init.o)
    0x00000cd4   0x00000cd4   0x0000000e   Code   RO         3691    .text               mc_p.l(isspace_c.o)
    0x00000ce2   0x00000ce2   0x00000002   PAD
    0x00000ce4   0x00000ce4   0x0000033c   Code   RO         3693    .text               mc_p.l(_scanf.o)
    0x00001020   0x00001020   0x000000a2   Code   RO         3695    .text               mf_p.l(dsqrt.o)
    0x000010c2   0x000010c2   0x00000002   PAD
    0x000010c4   0x000010c4   0x00000024   Code   RO         3697    .text               mc_p.l(ctype_c.o)
    0x000010e8   0x000010e8   0x00000056   Code   RO         3708    .text               mc_p.l(__dczerorl2.o)
    0x0000113e   0x0000113e   0x00000008   Code   RO         2349    i.ADCInit           main.o
    0x00001146   0x00001146   0x00000002   PAD
    0x00001148   0x00001148   0x00000088   Code   RO           81    i.ADC_Converse      adc.o
    0x000011d0   0x000011d0   0x000000c8   Code   RO           82    i.ADC_Init          adc.o
    0x00001298   0x00001298   0x0000000c   Code   RO         2094    i.ADC_Start         drvadc.o
    0x000012a4   0x000012a4   0x00000060   Code   RO         3237    i.ASCII2Hex         wifi.o
    0x00001304   0x00001304   0x000002bc   Code   RO         2005    i.AllLedFlashTimes  windesktop.o
    0x000015c0   0x000015c0   0x00000094   Code   RO         2832    i.AppADCInit        appadc.o
    0x00001654   0x00001654   0x00000010   Code   RO         2834    i.AppADCStart       appadc.o
    0x00001664   0x00001664   0x00000010   Code   RO         2835    i.AppADCStop        appadc.o
    0x00001674   0x00001674   0x00000074   Code   RO         2394    i.AppSystemInit     appsystem.o
    0x000016e8   0x000016e8   0x00000060   Code   RO         2395    i.Beepring          appsystem.o
    0x00001748   0x00001748   0x000000ac   Code   RO            3    i.CLK_GetCoreFreq   system_bat32g137.o
    0x000017f4   0x000017f4   0x00000284   Code   RO         2151    i.CalculateTemp     drvtds.o
    0x00001a78   0x00001a78   0x0000004c   Code   RO         2396    i.CheckFlushState   appsystem.o
    0x00001ac4   0x00001ac4   0x0000002c   Code   RO         2397    i.ClearLongTimeWorkFlag  appsystem.o
    0x00001af0   0x00001af0   0x00000084   Code   RO         2398    i.CloseAllPeripheral  appsystem.o
    0x00001b74   0x00001b74   0x0000000a   Code   RO         2399    i.ClosePump         appsystem.o
    0x00001b7e   0x00001b7e   0x00000002   PAD
    0x00001b80   0x00001b80   0x00000148   Code   RO         3029    i.CmdREGHandle      modbus.o
    0x00001cc8   0x00001cc8   0x00000010   Code   RO         1820    i.CreatePage        window.o
    0x00001cd8   0x00001cd8   0x00000078   Code   RO         1821    i.DefWindowProc     window.o
    0x00001d50   0x00001d50   0x000001f8   Code   RO         2400    i.DesktopUpdate     appsystem.o
    0x00001f48   0x00001f48   0x00000090   Code   RO         2401    i.DisplayError      appsystem.o
    0x00001fd8   0x00001fd8   0x00000054   Code   RO         2402    i.DisplayUpdate     appsystem.o
    0x0000202c   0x0000202c   0x00000030   Code   RO         3239    i.EQUI_EnterWifiNetwork  wifi.o
    0x0000205c   0x0000205c   0x00000044   Code   RO         3240    i.EQUI_SendAlarmInfo  wifi.o
    0x000020a0   0x000020a0   0x00000020   Code   RO         3241    i.EQUI_SendWifiNetwork  wifi.o
    0x000020c0   0x000020c0   0x00000370   Code   RO         3242    i.EQUI_UpdataState  wifi.o
    0x00002430   0x00002430   0x00000050   Code   RO         2403    i.EnterAutoFlushing  appsystem.o
    0x00002480   0x00002480   0x00000040   Code   RO         2404    i.EnterBackFlowMode  appsystem.o
    0x000024c0   0x000024c0   0x00000028   Code   RO         2405    i.EnterErrorMode    appsystem.o
    0x000024e8   0x000024e8   0x00000028   Code   RO         2406    i.EnterFCTMode      appsystem.o
    0x00002510   0x00002510   0x00000058   Code   RO         2907    i.EnterFactoryMode  factorymode.o
    0x00002568   0x00002568   0x00000018   Code   RO         2407    i.EnterLiveMode     appsystem.o
    0x00002580   0x00002580   0x00000028   Code   RO         2408    i.EnterLockWaterMode  appsystem.o
    0x000025a8   0x000025a8   0x00000034   Code   RO         2409    i.EnterLongTimeWork  appsystem.o
    0x000025dc   0x000025dc   0x00000048   Code   RO         2410    i.EnterManualFlush  appsystem.o
    0x00002624   0x00002624   0x00000048   Code   RO         2411    i.EnterPowerOnFlushing  appsystem.o
    0x0000266c   0x0000266c   0x000001bc   Code   RO         2412    i.EnterProc         appsystem.o
    0x00002828   0x00002828   0x00000010   Code   RO         2413    i.EnterStandby      appsystem.o
    0x00002838   0x00002838   0x00000044   Code   RO         2414    i.EnterWorkMode     appsystem.o
    0x0000287c   0x0000287c   0x00000038   Code   RO         2415    i.ExitAutoFlushing  appsystem.o
    0x000028b4   0x000028b4   0x00000040   Code   RO         2416    i.ExitBackFlowMode  appsystem.o
    0x000028f4   0x000028f4   0x00000010   Code   RO         2417    i.ExitErrorMode     appsystem.o
    0x00002904   0x00002904   0x00000034   Code   RO         2418    i.ExitFCTMode       appsystem.o
    0x00002938   0x00002938   0x0000003c   Code   RO         2908    i.ExitFactoryMode   factorymode.o
    0x00002974   0x00002974   0x00000030   Code   RO         2909    i.ExitFilterFast    factorymode.o
    0x000029a4   0x000029a4   0x00000038   Code   RO         2910    i.ExitGasDetection  factorymode.o
    0x000029dc   0x000029dc   0x00000028   Code   RO         2419    i.ExitLiveMode      appsystem.o
    0x00002a04   0x00002a04   0x00000010   Code   RO         2420    i.ExitLockWaterMode  appsystem.o
    0x00002a14   0x00002a14   0x0000001c   Code   RO         2421    i.ExitLongTimeWork  appsystem.o
    0x00002a30   0x00002a30   0x00000060   Code   RO         2422    i.ExitManualFlush   appsystem.o
    0x00002a90   0x00002a90   0x00000034   Code   RO         2423    i.ExitPowerOnFlushing  appsystem.o
    0x00002ac4   0x00002ac4   0x00000134   Code   RO         2424    i.ExitProc          appsystem.o
    0x00002bf8   0x00002bf8   0x00000024   Code   RO         2425    i.ExitTimer         appsystem.o
    0x00002c1c   0x00002c1c   0x0000003c   Code   RO         2911    i.ExitWaterDetection  factorymode.o
    0x00002c58   0x00002c58   0x0000005c   Code   RO         2426    i.ExitWorkMode      appsystem.o
    0x00002cb4   0x00002cb4   0x00000034   Code   RO         3415    i.ExternalInterruptInit  waterflow.o
    0x00002ce8   0x00002ce8   0x00000034   Code   RO         3149    i.FCT_FaucetDataProc  fct.o
    0x00002d1c   0x00002d1c   0x0000002c   Code   RO         3150    i.FCT_LeakRes       fct.o
    0x00002d48   0x00002d48   0x00000090   Code   RO         3151    i.FCT_ModeInit      fct.o
    0x00002dd8   0x00002dd8   0x00000130   Code   RO         3152    i.FCT_Monitor       fct.o
    0x00002f08   0x00002f08   0x0000002c   Code   RO         3153    i.FCT_NTC2Res       fct.o
    0x00002f34   0x00002f34   0x0000002c   Code   RO         3154    i.FCT_NTCRes        fct.o
    0x00002f60   0x00002f60   0x0000002c   Code   RO         3155    i.FCT_PumpADC       fct.o
    0x00002f8c   0x00002f8c   0x0000003c   Code   RO         3156    i.FCT_netTDSRes     fct.o
    0x00002fc8   0x00002fc8   0x0000003c   Code   RO         3157    i.FCT_rawTDSRes     fct.o
    0x00003004   0x00003004   0x0000000c   Code   RO         3100    i.FLASH_ErasePage   sim_eeprom.o
    0x00003010   0x00003010   0x0000013c   Code   RO         2983    i.Faucet_Display    faucet.o
    0x0000314c   0x0000314c   0x00000088   Code   RO         2984    i.Faucet_PowneOnDisplay  faucet.o
    0x000031d4   0x000031d4   0x00000074   Code   RO         2985    i.Faucet_proc       faucet.o
    0x00003248   0x00003248   0x000000b8   Code   RO         2986    i.Faucet_workstate  faucet.o
    0x00003300   0x00003300   0x0000005c   Code   RO         2912    i.FilterDetection   factorymode.o
    0x0000335c   0x0000335c   0x000000d0   Code   RO         2913    i.FilterFast        factorymode.o
    0x0000342c   0x0000342c   0x000000b8   Code   RO         2427    i.FilterLifeCalculate  appsystem.o
    0x000034e4   0x000034e4   0x0000009c   Code   RO         2428    i.FilterLifeLive    appsystem.o
    0x00003580   0x00003580   0x00000020   Code   RO         2429    i.FilterReset_PCB   appsystem.o
    0x000035a0   0x000035a0   0x00000020   Code   RO         2430    i.FilterReset_RO    appsystem.o
    0x000035c0   0x000035c0   0x00000108   Code   RO         3101    i.FlashDataRead     sim_eeprom.o
    0x000036c8   0x000036c8   0x00000096   Code   RO         3102    i.FlashDataSave     sim_eeprom.o
    0x0000375e   0x0000375e   0x00000002   PAD
    0x00003760   0x00003760   0x0000003c   Code   RO         2914    i.GasDetection      factorymode.o
    0x0000379c   0x0000379c   0x0000001c   Code   RO         2095    i.GetADCValues      drvadc.o
    0x000037b8   0x000037b8   0x000000d4   Code   RO         3243    i.GetAllError       wifi.o
    0x0000388c   0x0000388c   0x000000f0   Code   RO         2836    i.GetChannalADCVal  appadc.o
    0x0000397c   0x0000397c   0x0000002c   Code   RO         3244    i.GetCommData       wifi.o
    0x000039a8   0x000039a8   0x0000000c   Code   RO         3245    i.GetEncryptionFlag  wifi.o
    0x000039b4   0x000039b4   0x0000005c   Code   RO         1259    i.GetFaucetData     appuart.o
    0x00003a10   0x00003a10   0x00000050   Code   RO         3416    i.GetFlowMeterPulse  waterflow.o
    0x00003a60   0x00003a60   0x00000068   Code   RO         2431    i.GetHVSstate       appsystem.o
    0x00003ac8   0x00003ac8   0x00000168   Code   RO         1892    i.GetKeyState       keyscan.o
    0x00003c30   0x00003c30   0x00000058   Code   RO         2432    i.GetLeakADC        appsystem.o
    0x00003c88   0x00003c88   0x0000003c   Code   RO         3158    i.GetLeakRes        fct.o
    0x00003cc4   0x00003cc4   0x000000a8   Code   RO         1680    i.GetMessage        system.o
    0x00003d6c   0x00003d6c   0x00000044   Code   RO         3030    i.GetModbusCRC      modbus.o
    0x00003db0   0x00003db0   0x0000003c   Code   RO         2152    i.GetNTCResVal      drvtds.o
    0x00003dec   0x00003dec   0x000000ac   Code   RO         2153    i.GetNTCTemp        drvtds.o
    0x00003e98   0x00003e98   0x000000ac   Code   RO         2154    i.GetNTCTemp2       drvtds.o
    0x00003f44   0x00003f44   0x00000042   Code   RO         3246    i.GetOperationMode  wifi.o
    0x00003f86   0x00003f86   0x00000002   PAD
    0x00003f88   0x00003f88   0x00000070   Code   RO         2433    i.GetPumpADC        appsystem.o
    0x00003ff8   0x00003ff8   0x0000001c   Code   RO         2987    i.GetSum            faucet.o
    0x00004014   0x00004014   0x0000001c   Code   RO         3247    i.GetSum            wifi.o
    0x00004030   0x00004030   0x00000178   Code   RO         2794    i.GetSysSeting      savedata.o
    0x000041a8   0x000041a8   0x00000014   Code   RO         1682    i.GetSystemTime     system.o
    0x000041bc   0x000041bc   0x0000003c   Code   RO         3159    i.GetTDSRes         fct.o
    0x000041f8   0x000041f8   0x0000000a   Code   RO         2155    i.GetTDS_net        drvtds.o
    0x00004202   0x00004202   0x0000000a   Code   RO         2156    i.GetTDS_raw        drvtds.o
    0x0000420c   0x0000420c   0x0000000a   Code   RO         2157    i.GetTDS_temp       drvtds.o
    0x00004216   0x00004216   0x00000024   Code   RO         2837    i.GetVoltageValue   appadc.o
    0x0000423a   0x0000423a   0x00000002   PAD
    0x0000423c   0x0000423c   0x0000005c   Code   RO         1260    i.GetWifiData       appuart.o
    0x00004298   0x00004298   0x00000024   Code   RO         1893    i.Getkey            keyscan.o
    0x000042bc   0x000042bc   0x0000004c   Code   RO         2158    i.GetnetTDS         drvtds.o
    0x00004308   0x00004308   0x00000044   Code   RO         2159    i.GetrawTDS         drvtds.o
    0x0000434c   0x0000434c   0x00000058   Code   RO         1894    i.HkeytoVkey        keyscan.o
    0x000043a4   0x000043a4   0x00000088   Code   RO         2268    i.I2C_ReadKey       drvi2c.o
    0x0000442c   0x0000442c   0x00000032   Code   RO         2270    i.I2C_SendDisplay   drvi2c.o
    0x0000445e   0x0000445e   0x00000020   Code   RO         2272    i.IIC_Init          drvi2c.o
    0x0000447e   0x0000447e   0x00000044   Code   RO         2273    i.IIC_RecvACK       drvi2c.o
    0x000044c2   0x000044c2   0x0000006c   Code   RO         2274    i.IIC_RecvByte      drvi2c.o
    0x0000452e   0x0000452e   0x00000038   Code   RO         2275    i.IIC_SendACK       drvi2c.o
    0x00004566   0x00004566   0x0000006c   Code   RO         2276    i.IIC_SendByte      drvi2c.o
    0x000045d2   0x000045d2   0x00000036   Code   RO         2277    i.IIC_Start         drvi2c.o
    0x00004608   0x00004608   0x00000028   Code   RO         2278    i.IIC_Stop          drvi2c.o
    0x00004630   0x00004630   0x00000044   Code   RO           92    i.INTC_ClearPendingIRQ  adc.o
    0x00004674   0x00004674   0x00000044   Code   RO          331    i.INTC_ClearPendingIRQ  sci.o
    0x000046b8   0x000046b8   0x00000044   Code   RO         1190    i.INTC_ClearPendingIRQ  intp.o
    0x000046fc   0x000046fc   0x00000044   Code   RO         1261    i.INTC_ClearPendingIRQ  appuart.o
    0x00004740   0x00004740   0x00000044   Code   RO         3417    i.INTC_ClearPendingIRQ  waterflow.o
    0x00004784   0x00004784   0x00000040   Code   RO           93    i.INTC_DisableIRQ   adc.o
    0x000047c4   0x000047c4   0x00000040   Code   RO          332    i.INTC_DisableIRQ   sci.o
    0x00004804   0x00004804   0x00000040   Code   RO         1191    i.INTC_DisableIRQ   intp.o
    0x00004844   0x00004844   0x00000040   Code   RO         1262    i.INTC_DisableIRQ   appuart.o
    0x00004884   0x00004884   0x00000040   Code   RO          333    i.INTC_EnableIRQ    sci.o
    0x000048c4   0x000048c4   0x00000040   Code   RO         1192    i.INTC_EnableIRQ    intp.o
    0x00004904   0x00004904   0x00000040   Code   RO         1263    i.INTC_EnableIRQ    appuart.o
    0x00004944   0x00004944   0x00000044   Code   RO           94    i.INTC_GetPendingIRQ  adc.o
    0x00004988   0x00004988   0x00000044   Code   RO         3418    i.INTC_GetPendingIRQ  waterflow.o
    0x000049cc   0x000049cc   0x000004f8   Code   RO         1193    i.INTP_Init         intp.o
    0x00004ec4   0x00004ec4   0x0000003a   Code   RO         1194    i.INTP_Start        intp.o
    0x00004efe   0x00004efe   0x00000128   Code   RO         1624    i.IOInit            ioinit.o
    0x00005026   0x00005026   0x00000002   PAD
    0x00005028   0x00005028   0x00000078   Code   RO         3419    i.IRQ26_Handler     waterflow.o
    0x000050a0   0x000050a0   0x0000001e   Code   RO         1938    i.KeyContinueHand   winfilterset.o
    0x000050be   0x000050be   0x00000002   PAD
    0x000050c0   0x000050c0   0x00000038   Code   RO         2008    i.KeyContinueHand   windesktop.o
    0x000050f8   0x000050f8   0x00000034   Code   RO         1939    i.KeyDownHand       winfilterset.o
    0x0000512c   0x0000512c   0x00000064   Code   RO         2009    i.KeyDownHand       windesktop.o
    0x00005190   0x00005190   0x0000007c   Code   RO         1683    i.KillTimer         system.o
    0x0000520c   0x0000520c   0x00000060   Code   RO         2434    i.LEDLight          appsystem.o
    0x0000526c   0x0000526c   0x0000003c   Code   RO         1940    i.LongKeyHand       winfilterset.o
    0x000052a8   0x000052a8   0x000000cc   Code   RO         2010    i.LongKeyHand       windesktop.o
    0x00005374   0x00005374   0x0000001c   Code   RO         2011    i.LongKeyUpHand     windesktop.o
    0x00005390   0x00005390   0x0000002e   Code   RO         2838    i.MA                appadc.o
    0x000053be   0x000053be   0x00000002   PAD
    0x000053c0   0x000053c0   0x00000140   Code   RO         3031    i.ModbusProc        modbus.o
    0x00005500   0x00005500   0x00000014   Code   RO         3032    i.Modbus_SetReg     modbus.o
    0x00005514   0x00005514   0x000000b4   Code   RO         2839    i.MonitorAppADC     appadc.o
    0x000055c8   0x000055c8   0x00000060   Code   RO         3248    i.MonitorBigData    wifi.o
    0x00005628   0x00005628   0x00000140   Code   RO         2435    i.MonitorHVS_Faucet  appsystem.o
    0x00005768   0x00005768   0x000000ac   Code   RO         2436    i.MonitorState      appsystem.o
    0x00005814   0x00005814   0x000000a4   Code   RO         2160    i.MonitorTDS        drvtds.o
    0x000058b8   0x000058b8   0x00000110   Code   RO         1684    i.MonitorTimer      system.o
    0x000059c8   0x000059c8   0x00000208   Code   RO         2437    i.MonitorWater      appsystem.o
    0x00005bd0   0x00005bd0   0x000000e0   Code   RO         3249    i.MonitrorAlarm     wifi.o
    0x00005cb0   0x00005cb0   0x0000009c   Code   RO         3250    i.NetworkTimer      wifi.o
    0x00005d4c   0x00005d4c   0x00000030   Code   RO         2438    i.OpenPump          appsystem.o
    0x00005d7c   0x00005d7c   0x00000010   Code   RO         2439    i.OpenPump_InletValve2  appsystem.o
    0x00005d8c   0x00005d8c   0x00000024   Code   RO          198    i.PORT_ClrBit       gpio.o
    0x00005db0   0x00005db0   0x00000020   Code   RO          199    i.PORT_GetBit       gpio.o
    0x00005dd0   0x00005dd0   0x00000198   Code   RO          201    i.PORT_Init         gpio.o
    0x00005f68   0x00005f68   0x00000024   Code   RO          202    i.PORT_SetBit       gpio.o
    0x00005f8c   0x00005f8c   0x00000036   Code   RO         2440    i.ParsingDisplayData  appsystem.o
    0x00005fc2   0x00005fc2   0x00000002   PAD
    0x00005fc4   0x00005fc4   0x00000064   Code   RO         2441    i.PowerDownCheck    appsystem.o
    0x00006028   0x00006028   0x00000070   Code   RO         2442    i.PowerOnDisplay    appsystem.o
    0x00006098   0x00006098   0x00000014   Code   RO         2443    i.ResetPowerOnFlushFlag  appsystem.o
    0x000060ac   0x000060ac   0x00000018   Code   RO         1941    i.RestFilter        winfilterset.o
    0x000060c4   0x000060c4   0x00000118   Code   RO         2444    i.RestoreFactory    appsystem.o
    0x000061dc   0x000061dc   0x00000042   Code   RO         3033    i.ReturnWriteMultiRegOK  modbus.o
    0x0000621e   0x0000621e   0x00000002   PAD
    0x00006220   0x00006220   0x00000048   Code   RO         1644    i.SYSClockInit      sys_clock.o
    0x00006268   0x00006268   0x00000094   Code   RO         1685    i.SYSInit           system.o
    0x000062fc   0x000062fc   0x00000030   Code   RO         2351    i.SYS_Init          main.o
    0x0000632c   0x0000632c   0x00000178   Code   RO         2795    i.SaveSysSeting     savedata.o
    0x000064a4   0x000064a4   0x0000006c   Code   RO         1687    i.SendMessage       system.o
    0x00006510   0x00006510   0x00000036   Code   RO         3034    i.SendModbusError   modbus.o
    0x00006546   0x00006546   0x00000002   PAD
    0x00006548   0x00006548   0x0000008c   Code   RO         3035    i.SendModbusRegData  modbus.o
    0x000065d4   0x000065d4   0x00000018   Code   RO         2446    i.SetAutoFlushFlag  appsystem.o
    0x000065ec   0x000065ec   0x00000090   Code   RO         2447    i.SetBoosterPump    appsystem.o
    0x0000667c   0x0000667c   0x0000001c   Code   RO         2448    i.SetInletValve     appsystem.o
    0x00006698   0x00006698   0x0000001c   Code   RO         2449    i.SetInletValve2    appsystem.o
    0x000066b4   0x000066b4   0x00000014   Code   RO         1688    i.SetSystemTime     system.o
    0x000066c8   0x000066c8   0x0000000c   Code   RO         2161    i.SetTDSUpdataEN    drvtds.o
    0x000066d4   0x000066d4   0x0000001c   Code   RO         2450    i.SetWasteWaterValve  appsystem.o
    0x000066f0   0x000066f0   0x0000000c   Code   RO         3036    i.Small2BigMode     modbus.o
    0x000066fc   0x000066fc   0x0000001e   Code   RO         3251    i.SmallMode2BitMode  wifi.o
    0x0000671a   0x0000671a   0x00000002   PAD
    0x0000671c   0x0000671c   0x00000044   Code   RO         2451    i.Standby           appsystem.o
    0x00006760   0x00006760   0x0000003c   Code   RO         2452    i.StandbyRestart    appsystem.o
    0x0000679c   0x0000679c   0x000000ec   Code   RO         1689    i.SyStemTimeTask    system.o
    0x00006888   0x00006888   0x0000006c   Code   RO         2796    i.SysSetingInit     savedata.o
    0x000068f4   0x000068f4   0x000001b8   Code   RO         1645    i.SysTick_Handler   sys_clock.o
    0x00006aac   0x00006aac   0x00000010   Code   RO            5    i.SystemCoreClockUpdate  system_bat32g137.o
    0x00006abc   0x00006abc   0x00000074   Code   RO            6    i.SystemInit        system_bat32g137.o
    0x00006b30   0x00006b30   0x00000086   Code   RO         1895    i.TaskKeySan        keyscan.o
    0x00006bb6   0x00006bb6   0x00000002   PAD
    0x00006bb8   0x00006bb8   0x00000038   Code   RO         1794    i.TaskProcess       task.o
    0x00006bf0   0x00006bf0   0x0000008c   Code   RO         2162    i.TemperatureCompensation  drvtds.o
    0x00006c7c   0x00006c7c   0x000000cc   Code   RO         1690    i.TimeSetEvent      system.o
    0x00006d48   0x00006d48   0x00000064   Code   RO          385    i.UART0_BaudRate    sci.o
    0x00006dac   0x00006dac   0x0000014c   Code   RO          386    i.UART0_Init        sci.o
    0x00006ef8   0x00006ef8   0x00000050   Code   RO          389    i.UART0_Start       sci.o
    0x00006f48   0x00006f48   0x00000050   Code   RO          397    i.UART2_BaudRate    sci.o
    0x00006f98   0x00006f98   0x00000154   Code   RO          398    i.UART2_Init        sci.o
    0x000070ec   0x000070ec   0x00000050   Code   RO          401    i.UART2_Start       sci.o
    0x0000713c   0x0000713c   0x000000e4   Code   RO          403    i.UART_BaudRateCal  sci.o
    0x00007220   0x00007220   0x00000050   Code   RO         1266    i.UartSendDisplayData  appuart.o
    0x00007270   0x00007270   0x00000050   Code   RO         1267    i.UartSendFaucetData  appuart.o
    0x000072c0   0x000072c0   0x00000050   Code   RO         1269    i.UartSendWifiData  appuart.o
    0x00007310   0x00007310   0x000001cc   Code   RO         3421    i.UpdataFlowMeterWaterVolume  waterflow.o
    0x000074dc   0x000074dc   0x00000100   Code   RO         1942    i.Update            winfilterset.o
    0x000075dc   0x000075dc   0x000000a4   Code   RO         2453    i.UpdateFilterLife  appsystem.o
    0x00007680   0x00007680   0x00000018   Code   RO         2013    i.UpdateStandby     windesktop.o
    0x00007698   0x00007698   0x0000002e   Code   RO         3103    i.UserDataCrcCheck  sim_eeprom.o
    0x000076c6   0x000076c6   0x00000002   PAD
    0x000076c8   0x000076c8   0x00000174   Code   RO         2163    i.UserTdsPatch      drvtds.o
    0x0000783c   0x0000783c   0x0000000c   Code   RO         1023    i.WDT_Restart       wdt.o
    0x00007848   0x00007848   0x000000b4   Code   RO         3252    i.WIFI_AddData2protocol  wifi.o
    0x000078fc   0x000078fc   0x000000d0   Code   RO         3253    i.WIFI_ControlHand  wifi.o
    0x000079cc   0x000079cc   0x00000090   Code   RO         3254    i.WIFI_GetWifiStatus  wifi.o
    0x00007a5c   0x00007a5c   0x00000064   Code   RO         3255    i.WIFI_SendTypeID   wifi.o
    0x00007ac0   0x00007ac0   0x00000060   Code   RO         3256    i.WIFI_SetBigDataHeartbeat  wifi.o
    0x00007b20   0x00007b20   0x00000064   Code   RO         3257    i.WIFI_SetHeartbeat  wifi.o
    0x00007b84   0x00007b84   0x00000012   Code   RO         3258    i.WIFI_SetPriFilterReset  wifi.o
    0x00007b96   0x00007b96   0x00000012   Code   RO         3259    i.WIFI_SetRoFilterReset  wifi.o
    0x00007ba8   0x00007ba8   0x0000006a   Code   RO         3260    i.WIFI_SetTime      wifi.o
    0x00007c12   0x00007c12   0x00000002   PAD
    0x00007c14   0x00007c14   0x00000074   Code   RO         3261    i.WIIF_SendEquiVersion  wifi.o
    0x00007c88   0x00007c88   0x00000054   Code   RO         2454    i.WaterCounter      appsystem.o
    0x00007cdc   0x00007cdc   0x00000048   Code   RO         2915    i.WaterDetection    factorymode.o
    0x00007d24   0x00007d24   0x000001e4   Code   RO         3262    i.WifiMsgProc       wifi.o
    0x00007f08   0x00007f08   0x00000034   Code   RO         2014    i.WinDesktopInit    windesktop.o
    0x00007f3c   0x00007f3c   0x00000034   Code   RO         1943    i.WinFilterSetInit  winfilterset.o
    0x00007f70   0x00007f70   0x00000028   Code   RO         1826    i.WinInit           window.o
    0x00007f98   0x00007f98   0x0000000c   Code   RO         1944    i.WinPageInit       winfilterset.o
    0x00007fa4   0x00007fa4   0x00000008   Code   RO         2015    i.WinPageInit       windesktop.o
    0x00007fac   0x00007fac   0x00000050   Code   RO         1827    i.WinPageSwitch     window.o
    0x00007ffc   0x00007ffc   0x00000064   Code   RO         1945    i.WinProc           winfilterset.o
    0x00008060   0x00008060   0x000000c4   Code   RO         2016    i.WinProc           windesktop.o
    0x00008124   0x00008124   0x00000038   Code   RO         2455    i.WinTimerOut       appsystem.o
    0x0000815c   0x0000815c   0x00000094   Code   RO         1828    i.WndProc           window.o
    0x000081f0   0x000081f0   0x00000034   Code   RO         3037    i.WriteRegData      modbus.o
    0x00008224   0x00008224   0x0000002e   Code   RO         3683    i.__ARM_clz         mf_p.l(depilogue.o)
    0x00008252   0x00008252   0x0000001c   Code   RO           41    i.__ARM_common_switch8  system_bat32g137.o
    0x0000826e   0x0000826e   0x00000002   PAD
    0x00008270   0x00008270   0x0000002c   Code   RO         3626    i.__ARM_fpclassify  m_ps.l(fpclassify.o)
    0x0000829c   0x0000829c   0x00000018   Code   RO          404    i.__NVIC_ClearPendingIRQ  sci.o
    0x000082b4   0x000082b4   0x00000020   Code   RO          405    i.__NVIC_DisableIRQ  sci.o
    0x000082d4   0x000082d4   0x00000020   Code   RO          406    i.__NVIC_EnableIRQ  sci.o
    0x000082f4   0x000082f4   0x00000020   Code   RO         1197    i.__NVIC_EnableIRQ  intp.o
    0x00008314   0x00008314   0x00000078   Code   RO          407    i.__NVIC_SetPriority  sci.o
    0x0000838c   0x0000838c   0x00000078   Code   RO         1646    i.__NVIC_SetPriority  sys_clock.o
    0x00008404   0x00008404   0x000000ac   Code   RO         3628    i.__kernel_poly     m_ps.l(poly.o)
    0x000084b0   0x000084b0   0x00000014   Code   RO         3612    i.__mathlib_dbl_divzero  m_ps.l(dunder.o)
    0x000084c4   0x000084c4   0x00000008   Code   RO         3614    i.__mathlib_dbl_infnan2  m_ps.l(dunder.o)
    0x000084cc   0x000084cc   0x00000010   Code   RO         3615    i.__mathlib_dbl_invalid  m_ps.l(dunder.o)
    0x000084dc   0x000084dc   0x00000014   Code   RO         3616    i.__mathlib_dbl_overflow  m_ps.l(dunder.o)
    0x000084f0   0x000084f0   0x00000014   Code   RO         3618    i.__mathlib_dbl_underflow  m_ps.l(dunder.o)
    0x00008504   0x00008504   0x0000000e   Code   RO         3702    i.__scatterload_copy  mc_p.l(handlers.o)
    0x00008512   0x00008512   0x00000002   Code   RO         3703    i.__scatterload_null  mc_p.l(handlers.o)
    0x00008514   0x00008514   0x0000000e   Code   RO         3704    i.__scatterload_zeroinit  mc_p.l(handlers.o)
    0x00008522   0x00008522   0x00000002   PAD
    0x00008524   0x00008524   0x0000000c   Code   RO         3667    i.__set_errno       mc_p.l(errno.o)
    0x00008530   0x00008530   0x00000042   Code   RO         2840    i.bubble_sort       appadc.o
    0x00008572   0x00008572   0x00000070   Code   RO         1503    i.delayms           delay.o
    0x000085e2   0x000085e2   0x0000000a   Code   RO         2916    i.delayopenpump     factorymode.o
    0x000085ec   0x000085ec   0x00000060   Code   RO         1504    i.delayus           delay.o
    0x0000864c   0x0000864c   0x00000010   Code   RO         1547    i.fifo_init         fifo.o
    0x0000865c   0x0000865c   0x00000054   Code   RO         3544    i.free              mc_p.l(malloc.o)
    0x000086b0   0x000086b0   0x00000098   Code   RO         3422    i.intp_0_6_interrupt  waterflow.o
    0x00008748   0x00008748   0x00000018   Code   RO         3104    i.mReadFlash        sim_eeprom.o
    0x00008760   0x00008760   0x00000016   Code   RO         3105    i.mWriteFlash       sim_eeprom.o
    0x00008776   0x00008776   0x00000002   PAD
    0x00008778   0x00008778   0x000000ac   Code   RO         2353    i.main              main.o
    0x00008824   0x00008824   0x0000006c   Code   RO         3545    i.malloc            mc_p.l(malloc.o)
    0x00008890   0x00008890   0x000009fc   Code   RO         3485    i.pow               m_ps.l(pow.o)
    0x0000928c   0x0000928c   0x0000003c   Code   RO         2456    i.powerDownSave     appsystem.o
    0x000092c8   0x000092c8   0x00000048   Code   RO         3632    i.sqrt              m_ps.l(sqrt.o)
    0x00009310   0x00009310   0x00000070   Code   RO         1270    i.uart0_interrupt_receive  appuart.o
    0x00009380   0x00009380   0x00000058   Code   RO         1271    i.uart0_interrupt_send  appuart.o
    0x000093d8   0x000093d8   0x00000070   Code   RO         1272    i.uart1_interrupt_receive  appuart.o
    0x00009448   0x00009448   0x00000058   Code   RO         1273    i.uart1_interrupt_send  appuart.o
    0x000094a0   0x000094a0   0x00000070   Code   RO         1274    i.uart2_interrupt_receive  appuart.o
    0x00009510   0x00009510   0x00000058   Code   RO         1275    i.uart2_interrupt_send  appuart.o
    0x00009568   0x00009568   0x000000d8   Code   RO         1000    ram_fetch_code      flash.o
    0x00009640   0x00009640   0x00000015   Data   RO         3161    .constdata          fct.o
    0x00009655   0x00009655   0x00000003   PAD
    0x00009658   0x00009658   0x00000088   Data   RO         3486    .constdata          m_ps.l(pow.o)
    0x000096e0   0x000096e0   0x00000008   Data   RO         3630    .constdata          m_ps.l(qnan.o)
    0x000096e8   0x000096e8   0x00000040   Data   RO         3698    .constdata          mc_p.l(ctype_c.o)
    0x00009728   0x00009728   0x00000041   Data   RO         3264    .conststring        wifi.o
    0x00009769   0x00009769   0x00000003   PAD
    0x0000976c   0x0000976c   0x00000020   Data   RO         3700    Region$$Table       anon$$obj.o


    Execution Region RW_IRAM1 (Exec base: 0x20000000, Load base: 0x0000978c, Size: 0x00000d98, Max: 0x00003000, ABSOLUTE, COMPRESSED[0x00000068])

    Exec Addr    Load Addr    Size         Type   Attr      Idx    E Section Name        Object

    0x20000000   COMPRESSED   0x00000004   Data   RW            8    .data               system_bat32g137.o
    0x20000004   COMPRESSED   0x00000012   Data   RW         1278    .data               appuart.o
    0x20000016   COMPRESSED   0x00000004   Data   RW         1695    .data               system.o
    0x2000001a   COMPRESSED   0x00000002   PAD
    0x2000001c   COMPRESSED   0x00000078   Data   RW         1795    .data               task.o
    0x20000094   COMPRESSED   0x00000008   Data   RW         1830    .data               window.o
    0x2000009c   COMPRESSED   0x0000000b   Data   RW         1897    .data               keyscan.o
    0x200000a7   COMPRESSED   0x00000004   Data   RW         2018    .data               windesktop.o
    0x200000ab   COMPRESSED   0x00000001   Data   RW         2096    .data               drvadc.o
    0x200000ac   COMPRESSED   0x00000008   Data   RW         2164    .data               drvtds.o
    0x200000b4   COMPRESSED   0x00000001   Data   RW         2279    .data               drvi2c.o
    0x200000b5   COMPRESSED   0x00000003   PAD
    0x200000b8   COMPRESSED   0x0000002d   Data   RW         2459    .data               appsystem.o
    0x200000e5   COMPRESSED   0x00000003   PAD
    0x200000e8   COMPRESSED   0x00000004   Data   RW         2797    .data               savedata.o
    0x200000ec   COMPRESSED   0x00000002   Data   RW         2842    .data               appadc.o
    0x200000ee   COMPRESSED   0x00000002   PAD
    0x200000f0   COMPRESSED   0x00000009   Data   RW         2917    .data               factorymode.o
    0x200000f9   COMPRESSED   0x00000003   PAD
    0x200000fc   COMPRESSED   0x00000008   Data   RW         3038    .data               modbus.o
    0x20000104   COMPRESSED   0x00000005   Data   RW         3162    .data               fct.o
    0x20000109   COMPRESSED   0x00000001   PAD
    0x2000010a   COMPRESSED   0x0000000e   Data   RW         3265    .data               wifi.o
    0x20000118   COMPRESSED   0x0000000e   Data   RW         3424    .data               waterflow.o
    0x20000126   COMPRESSED   0x00000002   PAD
    0x20000128   COMPRESSED   0x00000004   Data   RW         3663    .data               mc_p.l(mvars.o)
    0x2000012c   COMPRESSED   0x00000004   Data   RW         3664    .data               mc_p.l(mvars.o)
    0x20000130   COMPRESSED   0x00000004   Data   RW         3668    .data               mc_p.l(errno.o)
    0x20000134        -       0x0000026a   Zero   RW         1277    .bss                appuart.o
    0x2000039e        -       0x0000006a   Zero   RW         1551    .bss                fifo.o
    0x20000408        -       0x00000100   Zero   RW         1692    .bss                system.o
    0x20000508        -       0x00000018   Zero   RW         1829    .bss                window.o
    0x20000520        -       0x0000000b   Zero   RW         1946    .bss                winfilterset.o
    0x2000052b        -       0x0000000b   Zero   RW         2017    .bss                windesktop.o
    0x20000536        -       0x000000d1   Zero   RW         2457    .bss                appsystem.o
    0x20000607   COMPRESSED   0x00000001   PAD
    0x20000608        -       0x00000108   Zero   RW         2841    .bss                appadc.o
    0x20000710        -       0x0000000e   Zero   RW         2988    .bss                faucet.o
    0x2000071e        -       0x00000028   Zero   RW         3160    .bss                fct.o
    0x20000746        -       0x00000111   Zero   RW         3263    .bss                wifi.o
    0x20000857   COMPRESSED   0x00000001   PAD
    0x20000858        -       0x00000040   Zero   RW         3423    .bss                waterflow.o
    0x20000898        -       0x00000100   Zero   RW           73    HEAP                startup_bat32g137_1.o
    0x20000998        -       0x00000400   Zero   RW           72    STACK               startup_bat32g137_1.o


==============================================================================

Image component sizes


      Code (inc. data)   RO Data    RW Data    ZI Data      Debug   Object Name

       536         36          0          0          0      31612   adc.o
       748         56          0          2        264       5750   appadc.o
      6264        638          0         45        209      38609   appsystem.o
      1220        178          0         18        618      22238   appuart.o
       208          0          0          0          0       1240   delay.o
        40         12          0          1          0       1179   drvadc.o
       652          8          0          1          0       4772   drvi2c.o
      1910        358          0          8          0       7391   drvtds.o
       754        120          0          9          0       5049   factorymode.o
       780         36          0          0         14       3203   faucet.o
       916        136         21          5         40       7030   fct.o
        16          4          0          0        106       1352   fifo.o
       216          6          0          0          0       1508   flash.o
       512         28          0          0          0       3298   gpio.o
      1558         44          0          0          0      14617   intp.o
       296          0          0          0          0        553   ioinit.o
       618         26          0         11          0       3869   keyscan.o
       228         16          0          0          0       1496   main.o
      1060         42          0          8          0       6579   modbus.o
       860         48          0          4          0       2389   savedata.o
      1644        162          0          0          0      25405   sci.o
       518          0          0          0          0       5209   sim_eeprom.o
       100         10        192          0       1280       2060   startup_bat32g137_1.o
       632         64          0          0          0      11353   sys_clock.o
      1300         54          0          4        256       8229   system.o
       332         94          4          4          0      57831   system_bat32g137.o
        56          4          0        120          0       1634   task.o
      1000         76          0         14         64       6452   waterflow.o
        12          4          0          0          0        426   wdt.o
      3562        296         65         14        273      21533   wifi.o
      1368         52          0          4         11       5808   windesktop.o
       404         44          0          8         24       3359   window.o
       586         42          0          0         11       4248   winfilterset.o

    ----------------------------------------------------------------------
     30940       2694        320        296       3172     317281   Object Totals
         0          0         32          0          0          0   (incl. Generated)
        34          0          6         16          2          0   (incl. Padding)

    ----------------------------------------------------------------------

      Code (inc. data)   RO Data    RW Data    ZI Data      Debug   Library Member Name

        84         14          0          0          0        340   dunder.o
        44          4          0          0          0         60   fpclassify.o
       172          0          0          0          0         76   poly.o
      2556        196        136          0          0        240   pow.o
         0          0          8          0          0          0   qnan.o
        72          6          0          0          0         76   sqrt.o
        60         10          0          0          0         84   __0sscanf.o
        86          0          0          0          0          0   __dczerorl2.o
        30          0          0          0          0         60   _chval.o
       828         14          0          0          0         84   _scanf.o
       330          0          0          0          0         84   _scanf_int.o
        68          0          0          0          0         76   _sgetc.o
        36          4         64          0          0         60   ctype_c.o
         0          0          0          0          0          0   entry.o
         0          0          0          0          0          0   entry10a.o
         0          0          0          0          0          0   entry11a.o
         4          0          0          0          0          0   entry12b.o
         8          4          0          0          0          0   entry2.o
         4          0          0          0          0          0   entry5.o
         0          0          0          0          0          0   entry7b.o
         0          0          0          0          0          0   entry8b.o
         8          4          0          0          0          0   entry9a.o
        12          6          0          4          0         60   errno.o
        30          0          0          0          0          0   handlers.o
        40          0          0          0          0         72   idiv.o
        36          8          0          0          0         68   init.o
        14          0          0          0          0         68   isspace_c.o
         0          0          0          0          0          0   iusefp.o
        32          0          0          0          0         68   llshl.o
        38          0          0          0          0         68   llsshr.o
        34          0          0          0          0         68   llushr.o
       192         20          0          0          0        144   malloc.o
        36          0          0          0          0         60   memcpya.o
        36          0          0          0          0        100   memseta.o
         0          0          0          8          0          0   mvars.o
        44          8          0          0          0         84   scanf_char.o
        18          0          0          0          0         60   strcpy.o
        14          0          0          0          0         60   strlen.o
        40          0          0          0          0         72   strstr.o
        44          0          0          0          0         72   uidiv.o
        20          0          0          0          0         60   uread4.o
        18          0          0          0          0         60   uwrite4.o
        40          2          0          0          0         68   cdcmple.o
        40          2          0          0          0         68   cdrcmple.o
        56          0          0          0          0         68   d2f.o
       360          6          0          0          0        140   dadd.o
       240          6          0          0          0         84   ddiv.o
       236          0          0          0          0        216   depilogue.o
        72         10          0          0          0         72   dfixi.o
        40          6          0          0          0         68   dflti.o
        28          4          0          0          0         68   dfltui.o
       208          6          0          0          0         88   dmul.o
        44          0          0          0          0         72   dscalb.o
       162          0          0          0          0         80   dsqrt.o
        40          0          0          0          0         60   f2d.o
       178          0          0          0          0        108   fadd.o
       124          0          0          0          0         72   fdiv.o
       130          0          0          0          0        144   fepilogue.o
        50          0          0          0          0         60   ffixi.o
        40          0          0          0          0         60   ffixui.o
        14          0          0          0          0         68   ffltui.o
       122          0          0          0          0         72   fmul.o

    ----------------------------------------------------------------------
      7328        340        208         12          0       4220   Library Totals
        16          0          0          0          0          0   (incl. Padding)

    ----------------------------------------------------------------------

      Code (inc. data)   RO Data    RW Data    ZI Data      Debug   Library Name

      2928        220        144          0          0        792   m_ps.l
      2160         78         64         12          0       1692   mc_p.l
      2224         42          0          0          0       1736   mf_p.l

    ----------------------------------------------------------------------
      7328        340        208         12          0       4220   Library Totals

    ----------------------------------------------------------------------

==============================================================================


      Code (inc. data)   RO Data    RW Data    ZI Data      Debug   

     38268       3034        528        308       3172     307893   Grand Totals
     38268       3034        528        104       3172     307893   ELF Image Totals (compressed)
     38268       3034        528        104          0          0   ROM Totals

==============================================================================

    Total RO  Size (Code + RO Data)                38796 (  37.89kB)
    Total RW  Size (RW Data + ZI Data)              3480 (   3.40kB)
    Total ROM Size (Code + RO Data + RW Data)      38900 (  37.99kB)

==============================================================================

