LX51 LINKER/LOCATER V4.66.97.0                                                          09/08/2023  13:28:22  PAGE 1


LX51 LINKER/LOCATER V4.66.97.0, INVOKED BY:
D:\PROGRAM FILES (X86)\KEIL_V5\C51\BIN\LX51.EXE ..\Output\main.obj, ..\Output\SC_Init.obj, ..\Output\SC_it.obj, ..\Outpu
>> t\SysFunVarDefine.obj, ..\Output\ir.obj, ..\Output\sc95f_timer0.obj, ..\Output\sc95f_usci0.obj, ..\Output\sc95f_int.o
>> bj, ..\Output\sc95f_gpio.obj, ..\Output\STARTUP.obj TO ..\Output\IR_TEST PRINT (..\List\IR_TEST.map) REMOVEUNUSED CLA
>> SSES (CODE (C:0X100), CONST (C:0X100))


CPU MODE:     8051 MODE
MEMORY MODEL: LARGE


INPUT MODULES INCLUDED:
  ..\Output\main.obj (MAIN)
         COMMENT TYPE 0: C51 V9.60.0.0
  ..\Output\SC_Init.obj (SC_INIT)
         COMMENT TYPE 0: C51 V9.60.0.0
  ..\Output\SC_it.obj (SC_IT)
         COMMENT TYPE 0: C51 V9.60.0.0
  ..\Output\SysFunVarDefine.obj (SYSFUNVARDEFINE)
         COMMENT TYPE 0: C51 V9.60.0.0
  ..\Output\ir.obj (IR)
         COMMENT TYPE 0: C51 V9.60.0.0
  ..\Output\sc95f_timer0.obj (SC95F_TIMER0)
         COMMENT TYPE 0: C51 V9.60.0.0
  ..\Output\sc95f_usci0.obj (SC95F_USCI0)
         COMMENT TYPE 0: C51 V9.60.0.0
  ..\Output\sc95f_int.obj (SC95F_INT)
         COMMENT TYPE 0: C51 V9.60.0.0
  ..\Output\sc95f_gpio.obj (SC95F_GPIO)
         COMMENT TYPE 0: C51 V9.60.0.0
  ..\Output\STARTUP.obj (?C_STARTUP)
         COMMENT TYPE 1: A51 / ASM51 Assembler
  D:\PROGRAM FILES (X86)\KEIL_V5\C51\LIB\C51L.LIB (?C_INIT)
         COMMENT TYPE 1: A51 / ASM51 Assembler
  D:\PROGRAM FILES (X86)\KEIL_V5\C51\LIB\C51L.LIB (?C?IILDX)
         COMMENT TYPE 1: A51 / ASM51 Assembler
  D:\PROGRAM FILES (X86)\KEIL_V5\C51\LIB\C51L.LIB (?C?ILDOPTR)
         COMMENT TYPE 1: A51 / ASM51 Assembler
  D:\PROGRAM FILES (X86)\KEIL_V5\C51\LIB\C51L.LIB (?C?ULDIV)
         COMMENT TYPE 1: A51 / ASM51 Assembler
  D:\PROGRAM FILES (X86)\KEIL_V5\C51\LIB\C51L.LIB (?C?ULCMP)
         COMMENT TYPE 1: A51 / ASM51 Assembler
  D:\PROGRAM FILES (X86)\KEIL_V5\C51\LIB\C51L.LIB (?C?ULSHR)
         COMMENT TYPE 1: A51 / ASM51 Assembler
  D:\PROGRAM FILES (X86)\KEIL_V5\C51\LIB\C51L.LIB (?C?LSHL)
         COMMENT TYPE 1: A51 / ASM51 Assembler
  D:\PROGRAM FILES (X86)\KEIL_V5\C51\LIB\C51L.LIB (?C?LLDXDATA)
         COMMENT TYPE 1: A51 / ASM51 Assembler
  D:\PROGRAM FILES (X86)\KEIL_V5\C51\LIB\C51L.LIB (?C?LLDXDATA0)
         COMMENT TYPE 1: A51 / ASM51 Assembler
  D:\PROGRAM FILES (X86)\KEIL_V5\C51\LIB\C51L.LIB (?C?LSTXDATA)
         COMMENT TYPE 1: A51 / ASM51 Assembler
  D:\PROGRAM FILES (X86)\KEIL_V5\C51\LIB\C51L.LIB (?C?LSTKXDATA)
         COMMENT TYPE 1: A51 / ASM51 Assembler
  D:\PROGRAM FILES (X86)\KEIL_V5\C51\LIB\C51L.LIB (?C?PLDXDATA)
         COMMENT TYPE 1: A51 / ASM51 Assembler
  D:\PROGRAM FILES (X86)\KEIL_V5\C51\LIB\C51L.LIB (?C?PSTXDATA)
         COMMENT TYPE 1: A51 / ASM51 Assembler


ACTIVE MEMORY CLASSES OF MODULE:  ..\Output\IR_TEST (MAIN)

BASE        START       END         USED      MEMORY CLASS
==========================================================
C:000000H   C:000100H   C:00FFFFH   000875H   CODE
C:000000H   C:000100H   C:00FFFFH             CONST
LX51 LINKER/LOCATER V4.66.97.0                                                        09/08/2023  13:28:22  PAGE 2


X:000000H   X:000000H   X:00FFFFH   00001FH   XDATA
I:000000H   I:000000H   I:0000FFH   000001H   IDATA
I:000000H   I:000000H   I:00007FH   000008H   DATA


MEMORY MAP OF MODULE:  ..\Output\IR_TEST (MAIN)


START     STOP      LENGTH    ALIGN  RELOC    MEMORY CLASS   SEGMENT NAME
=========================================================================

* * * * * * * * * * *   D A T A   M E M O R Y   * * * * * * * * * * * * *
000000H   000007H   000008H   ---    AT..     DATA           "REG BANK 0"
000008H   000008H   000001H   BYTE   UNIT     IDATA          ?STACK

* * * * * * * * * * *   C O D E   M E M O R Y   * * * * * * * * * * * * *
000000H   000002H   000003H   ---    OFFS..   CODE           ?CO??C_STARTUP?0
000003H   000004H   000002H   BYTE   OFFS..   CODE           ?SC_IT?00003
000005H   00000AH   000006H   ---    ---      **GAP**
00000BH   00000CH   000002H   BYTE   OFFS..   CODE           ?SC_IT?0000B
00000DH   000012H   000006H   ---    ---      **GAP**
000013H   000015H   000003H   BYTE   OFFS..   CODE           ?SC_IT?00013
000016H   00001AH   000005H   ---    ---      **GAP**
00001BH   00001DH   000003H   BYTE   OFFS..   CODE           ?SC_IT?0001B
00001EH   000022H   000005H   ---    ---      **GAP**
000023H   000025H   000003H   BYTE   OFFS..   CODE           ?SC_IT?00023
000026H   00002AH   000005H   ---    ---      **GAP**
00002BH   00002DH   000003H   BYTE   OFFS..   CODE           ?SC_IT?0002B
00002EH   000032H   000005H   ---    ---      **GAP**
000033H   000035H   000003H   BYTE   OFFS..   CODE           ?SC_IT?00033
000036H   00003AH   000005H   ---    ---      **GAP**
00003BH   00003DH   000003H   BYTE   OFFS..   CODE           ?SC_IT?0003B
00003EH   000042H   000005H   ---    ---      **GAP**
000043H   000045H   000003H   BYTE   OFFS..   CODE           ?SC_IT?00043
000046H   00004AH   000005H   ---    ---      **GAP**
00004BH   00004DH   000003H   BYTE   OFFS..   CODE           ?SC_IT?0004B
00004EH   000052H   000005H   ---    ---      **GAP**
000053H   000055H   000003H   BYTE   OFFS..   CODE           ?SC_IT?00053
000056H   000062H   00000DH   ---    ---      **GAP**
000063H   000065H   000003H   BYTE   OFFS..   CODE           ?SC_IT?00063
000066H   00006AH   000005H   ---    ---      **GAP**
00006BH   00006DH   000003H   BYTE   OFFS..   CODE           ?SC_IT?0006B
00006EH   000072H   000005H   ---    ---      **GAP**
000073H   000075H   000003H   BYTE   OFFS..   CODE           ?SC_IT?00073
000076H   00007AH   000005H   ---    ---      **GAP**
00007BH   00007DH   000003H   BYTE   OFFS..   CODE           ?SC_IT?0007B
00007EH   000082H   000005H   ---    ---      **GAP**
000083H   000085H   000003H   BYTE   OFFS..   CODE           ?SC_IT?00083
000086H   00008AH   000005H   ---    ---      **GAP**
00008BH   00008DH   000003H   BYTE   OFFS..   CODE           ?SC_IT?0008B
00008EH   000092H   000005H   ---    ---      **GAP**
000093H   000095H   000003H   BYTE   OFFS..   CODE           ?SC_IT?00093
000096H   00009AH   000005H   ---    ---      **GAP**
00009BH   00009DH   000003H   BYTE   OFFS..   CODE           ?SC_IT?0009B
00009EH   0000B2H   000015H   ---    ---      **GAP**
0000B3H   0000B5H   000003H   BYTE   OFFS..   CODE           ?SC_IT?000B3
0000B6H   0000FFH   00004AH   ---    ---      **GAP**
000100H   0002B9H   0001BAH   BYTE   UNIT     CODE           ?C?LIB_CODE
0002BAH   000353H   00009AH   BYTE   UNIT     CODE           ?C_C51STARTUP
000354H   000367H   000014H   BYTE   UNIT     CODE           ?C_INITSEG
000368H   000395H   00002EH   BYTE   UNIT     CODE           ?PR?MAIN?MAIN
000396H   000456H   0000C1H   BYTE   UNIT     CODE           ?PR?IR_RECEIVE_POCESS?IR
000457H   000462H   00000CH   BYTE   UNIT     CODE           ?L?COM0001
000463H   00046AH   000008H   BYTE   UNIT     CODE           ?L?COM0009
00046BH   000476H   00000CH   BYTE   UNIT     CODE           ?L?COM0006
LX51 LINKER/LOCATER V4.66.97.0                                                        09/08/2023  13:28:22  PAGE 3


000477H   000481H   00000BH   BYTE   UNIT     CODE           ?PR?SC_INIT?SC_INIT
000482H   000487H   000006H   BYTE   UNIT     CODE           ?PR?SC_GPIO_INIT?SC_INIT
000488H   000559H   0000D2H   BYTE   UNIT     CODE           ?PR?_GPIO_INIT?SC95F_GPIO
00055AH   00058AH   000031H   BYTE   UNIT     CODE           ?PR?SC_USCI0_INIT?SC_INIT
00058BH   0005CBH   000041H   BYTE   UNIT     CODE           ?PR?_USCI0_UART_INIT?SC95F_USCI0
0005CCH   0005D6H   00000BH   BYTE   UNIT     CODE           ?L?COM0005
0005D7H   0005E2H   00000CH   BYTE   UNIT     CODE           ?L?COM0003
0005E3H   0005F4H   000012H   BYTE   UNIT     CODE           ?PR?SC_INT_INIT?SC_INIT
0005F5H   00060AH   000016H   BYTE   UNIT     CODE           ?PR?_INT1_ITCONFIG?SC95F_INT
00060BH   000622H   000018H   BYTE   UNIT     CODE           ?PR?SC_TIM0_INIT?SC_INIT
000623H   00062BH   000009H   BYTE   UNIT     CODE           ?PR?_TIM0_CMD?SC95F_TIMER0
00062CH   00065AH   00002FH   BYTE   UNIT     CODE           ?PR?IR_RECEIVE?IR
00065BH   00068BH   000031H   BYTE   UNIT     CODE           ?PR?_TIM0_WORKMODECONFIG?SC95F_TIMER0
00068CH   000694H   000009H   BYTE   UNIT     CODE           ?L?COM0007
000695H   00069AH   000006H   BYTE   UNIT     CODE           ?PR?_TIM0_WORKMODE1CONFIG?SC95F_TIMER0
00069BH   0006A2H   000008H   BYTE   UNIT     CODE           ?L?COM0008
0006A3H   0006A5H   000003H   BYTE   UNIT     CODE           ?PR?_USCI0_UART_SENDDATA8?SC95F_USCI0
0006A6H   0006AFH   00000AH   BYTE   UNIT     CODE           ?PR?_TIM0_WORKMODE3CONFIG?SC95F_TIMER0
0006B0H   0006BAH   00000BH   BYTE   UNIT     CODE           ?PR?_TIM0_WORKMODE2CONFIG?SC95F_TIMER0
0006BBH   0006CCH   000012H   BYTE   UNIT     CODE           ?PR?_TIM0_WORKMODE0CONFIG?SC95F_TIMER0
0006CDH   0006DEH   000012H   BYTE   UNIT     CODE           ?PR?_TIM0_ITCONFIG?SC95F_TIMER0
0006DFH   0006F4H   000016H   BYTE   UNIT     CODE           ?PR?_USCI0_ITCONFIG?SC95F_USCI0
0006F5H   00071EH   00002AH   BYTE   UNIT     CODE           ?PR?_TIM0_TIMEBASEINIT?SC95F_TIMER0
00071FH   000749H   00002BH   BYTE   UNIT     CODE           ?PR?_INT1_SETTRIGGERMODE?SC95F_INT
00074AH   000775H   00002CH   BYTE   UNIT     CODE           ?PR?_GPIO_WRITEHIGH?SC95F_GPIO
000776H   0007A7H   000032H   BYTE   UNIT     CODE           ?PR?_GPIO_WRITELOW?SC95F_GPIO
0007A8H   0007DCH   000035H   BYTE   UNIT     CODE           ?PR?_GPIO_READPIN?SC95F_GPIO
0007DDH   0007E0H   000004H   BYTE   UNIT     CODE           ?PR?INT0INTERRUPT?SC_IT
0007E1H   000841H   000061H   BYTE   UNIT     CODE           ?PR?TIMER0INTERRUPT?SC_IT
000842H   000850H   00000FH   BYTE   UNIT     CODE           ?L?COM0004
000851H   000879H   000029H   BYTE   UNIT     CODE           ?PR?INT1INTERRUPT?SC_IT
00087AH   00087AH   000001H   BYTE   UNIT     CODE           ?PR?TIMER1INTERRUPT?SC_IT
00087BH   00087BH   000001H   BYTE   UNIT     CODE           ?PR?UART0INTERRUPT?SC_IT
00087CH   00087CH   000001H   BYTE   UNIT     CODE           ?PR?TIMER2INTERRUPT?SC_IT
00087DH   00087DH   000001H   BYTE   UNIT     CODE           ?PR?ADCINTERRUPT?SC_IT
00087EH   0008C9H   00004CH   BYTE   UNIT     CODE           ?PR?USCI0INTERRUPT?SC_IT
0008CAH   0008FBH   000032H   BYTE   UNIT     CODE           ?PR?_USCI0_CLEARFLAG?SC95F_USCI0
0008FCH   00092BH   000030H   BYTE   UNIT     CODE           ?PR?_USCI0_GETFLAGSTATUS?SC95F_USCI0
00092CH   00092CH   000001H   BYTE   UNIT     CODE           ?PR?PWMINTERRUPT?SC_IT
00092DH   00092DH   000001H   BYTE   UNIT     CODE           ?PR?BTMINTERRUPT?SC_IT
00092EH   00092EH   000001H   BYTE   UNIT     CODE           ?PR?INT2INTERRUPT?SC_IT
00092FH   00092FH   000001H   BYTE   UNIT     CODE           ?PR?ACMPINTERRUPT?SC_IT
000930H   000930H   000001H   BYTE   UNIT     CODE           ?PR?TIMER3INTERRUPT?SC_IT
000931H   000931H   000001H   BYTE   UNIT     CODE           ?PR?TIMER4INTERRUPT?SC_IT
000932H   000932H   000001H   BYTE   UNIT     CODE           ?PR?USCI1INTERRUPT?SC_IT
000933H   000933H   000001H   BYTE   UNIT     CODE           ?PR?USCI2INTERRUPT?SC_IT
000934H   000934H   000001H   BYTE   UNIT     CODE           ?PR?USCI3INTERRUPT?SC_IT
000935H   000935H   000001H   BYTE   UNIT     CODE           ?PR?USCI4INTERRUPT?SC_IT
000936H   000936H   000001H   BYTE   UNIT     CODE           ?PR?USCI5INTERRUPT?SC_IT
000937H   000937H   000001H   BYTE   UNIT     CODE           ?PR?LPDINTERRUPT?SC_IT

* * * * * * * * * * *  X D A T A   M E M O R Y  * * * * * * * * * * * * *
000000H   00000AH   00000BH   BYTE   UNIT     XDATA          ?XD?IR
00000BH   000014H   00000AH   BYTE   UNIT     XDATA          _XDATA_GROUP_
000015H   00001DH   000009H   BYTE   UNIT     XDATA          ?XD?SC_IT
00001EH   00001EH   000001H   BYTE   UNIT     XDATA          ?XD?MAIN

* * * * * * * * *   R E M O V E D     S E G M E N T S   * * * * * * * *
   *DEL*:           000001H   BYTE   UNIT     CODE           ?PR?SC_OPTION_INIT?SC_INIT
   *DEL*:           000001H   BYTE   UNIT     CODE           ?PR?SC_UART0_INIT?SC_INIT
   *DEL*:           000001H   BYTE   UNIT     CODE           ?PR?SC_TIM1_INIT?SC_INIT
   *DEL*:           000001H   BYTE   UNIT     CODE           ?PR?SC_TIM2_INIT?SC_INIT
   *DEL*:           000001H   BYTE   UNIT     CODE           ?PR?SC_TIM3_INIT?SC_INIT
   *DEL*:           000001H   BYTE   UNIT     CODE           ?PR?SC_TIM4_INIT?SC_INIT
   *DEL*:           000001H   BYTE   UNIT     CODE           ?PR?SC_PWM_INIT?SC_INIT
LX51 LINKER/LOCATER V4.66.97.0                                                        09/08/2023  13:28:22  PAGE 4


   *DEL*:           000001H   BYTE   UNIT     CODE           ?PR?SC_PWM0_INIT?SC_INIT
   *DEL*:           000001H   BYTE   UNIT     CODE           ?PR?SC_PWM1_INIT?SC_INIT
   *DEL*:           000001H   BYTE   UNIT     CODE           ?PR?SC_PWM2_INIT?SC_INIT
   *DEL*:           000001H   BYTE   UNIT     CODE           ?PR?SC_PWM3_INIT?SC_INIT
   *DEL*:           000001H   BYTE   UNIT     CODE           ?PR?SC_PWM4_INIT?SC_INIT
   *DEL*:           000001H   BYTE   UNIT     CODE           ?PR?SC_ADC_INIT?SC_INIT
   *DEL*:           000001H   BYTE   UNIT     CODE           ?PR?SC_PGA_INIT?SC_INIT
   *DEL*:           000001H   BYTE   UNIT     CODE           ?PR?SC_IAP_INIT?SC_INIT
   *DEL*:           000001H   BYTE   UNIT     CODE           ?PR?SC_USCI1_INIT?SC_INIT
   *DEL*:           000001H   BYTE   UNIT     CODE           ?PR?SC_USCI2_INIT?SC_INIT
   *DEL*:           000001H   BYTE   UNIT     CODE           ?PR?SC_USCI3_INIT?SC_INIT
   *DEL*:           000001H   BYTE   UNIT     CODE           ?PR?SC_USCI4_INIT?SC_INIT
   *DEL*:           000001H   BYTE   UNIT     CODE           ?PR?SC_USCI5_INIT?SC_INIT
   *DEL*:           000001H   BYTE   UNIT     CODE           ?PR?SC_SSI_INIT?SC_INIT
   *DEL*:           000001H   BYTE   UNIT     CODE           ?PR?SC_SSI0_INIT?SC_INIT
   *DEL*:           000001H   BYTE   UNIT     CODE           ?PR?SC_SSI1_INIT?SC_INIT
   *DEL*:           000001H   BYTE   UNIT     CODE           ?PR?SC_BTM_INIT?SC_INIT
   *DEL*:           000001H   BYTE   UNIT     CODE           ?PR?SC_CRC_INIT?SC_INIT
   *DEL*:           000001H   BYTE   UNIT     CODE           ?PR?SC_CHKSUM_INIT?SC_INIT
   *DEL*:           000001H   BYTE   UNIT     CODE           ?PR?SC_WDT_INIT?SC_INIT
   *DEL*:           000001H   BYTE   UNIT     CODE           ?PR?SC_PWR_INIT?SC_INIT
   *DEL*:           000001H   BYTE   UNIT     CODE           ?PR?SC_DDIC_INIT?SC_INIT
   *DEL*:           000001H   BYTE   UNIT     CODE           ?PR?SC_ACMP_INIT?SC_INIT
   *DEL*:           000001H   BYTE   UNIT     CODE           ?PR?SC_MDU_INIT?SC_INIT
   *DEL*:           000001H   BYTE   UNIT     CODE           ?PR?SC_LPD_INIT?SC_INIT
   *DEL*:           000013H   BYTE   UNIT     CODE           ?PR?TIM0_DEINIT?SC95F_TIMER0
   *DEL*:           00000FH   BYTE   UNIT     CODE           ?PR?_TIM0_MODE0SETRELOADCOUNTER?SC95F_TIMER0
   *DEL*:           000003H   BYTE   UNIT     CODE           ?PR?_TIM0_MODE1SETRELOADCOUNTER?SC95F_TIMER0
   *DEL*:           000003H   BYTE   UNIT     CODE           ?PR?_TIM0_SETTL0COUNTER?SC95F_TIMER0
   *DEL*:           000003H   BYTE   UNIT     CODE           ?PR?_TIM0_SETTH0COUNTER?SC95F_TIMER0
   *DEL*:           000013H   BYTE   UNIT     CODE           ?PR?USCI0_DEINIT?SC95F_USCI0
   *DEL*:           00002CH   BYTE   UNIT     CODE           ?PR?_USCI0_SPI_INIT?SC95F_USCI0
   *DEL*:           000007H   BYTE   UNIT     XDATA          ?XD?_USCI0_SPI_INIT?SC95F_USCI0
   *DEL*:           00000BH   BYTE   UNIT     CODE           ?PR?_USCI0_TRANSMISSIONMODE?SC95F_USCI0
   *DEL*:           000013H   BYTE   UNIT     CODE           ?PR?_USCI0_SPI_CMD?SC95F_USCI0
   *DEL*:           000003H   BYTE   UNIT     CODE           ?PR?_USCI0_SPI_SENDDATA_8?SC95F_USCI0
   *DEL*:           000003H   BYTE   UNIT     CODE           ?PR?USCI0_SPI_RECEIVEDATA_8?SC95F_USCI0
   *DEL*:           00000CH   BYTE   UNIT     CODE           ?PR?_USCI0_SPI_SENDDATA_16?SC95F_USCI0
   *DEL*:           000009H   BYTE   UNIT     CODE           ?PR?USCI0_SPI_RECEIVEDATA_16?SC95F_USCI0
   *DEL*:           00000EH   BYTE   UNIT     CODE           ?PR?_USCI0_TWI_SLAVE_INIT?SC95F_USCI0
   *DEL*:           00000CH   BYTE   UNIT     CODE           ?PR?_USCI0_TWI_MASTERCOMMUNICATIONRATE?SC95F_USCI0
   *DEL*:           000004H   BYTE   UNIT     CODE           ?PR?USCI0_TWI_START?SC95F_USCI0
   *DEL*:           000004H   BYTE   UNIT     CODE           ?PR?USCI0_TWI_MASTERMODESTOP?SC95F_USCI0
   *DEL*:           000013H   BYTE   UNIT     CODE           ?PR?_USCI0_TWI_SLAVECLOCKEXTENSION?SC95F_USCI0
   *DEL*:           000013H   BYTE   UNIT     CODE           ?PR?_USCI0_TWI_ACKNOWLEDGECONFIG?SC95F_USCI0
   *DEL*:           000013H   BYTE   UNIT     CODE           ?PR?_USCI0_TWI_GENERALCALLCMD?SC95F_USCI0
   *DEL*:           00000DH   BYTE   UNIT     CODE           ?PR?_USCI0_GETTWISTATUS?SC95F_USCI0
   *DEL*:           000013H   BYTE   UNIT     CODE           ?PR?_USCI0_TWI_CMD?SC95F_USCI0
   *DEL*:           000003H   BYTE   UNIT     CODE           ?PR?_USCI0_TWI_SENDDATA?SC95F_USCI0
   *DEL*:           000003H   BYTE   UNIT     CODE           ?PR?USCI0_TWI_RECEIVEDATA?SC95F_USCI0
   *DEL*:           000003H   BYTE   UNIT     CODE           ?PR?USCI0_UART_RECEIVEDATA8?SC95F_USCI0
   *DEL*:           000014H   BYTE   UNIT     CODE           ?PR?_USCI0_UART_SENDDATA9?SC95F_USCI0
   *DEL*:           000013H   BYTE   UNIT     CODE           ?PR?USCI0_UART_RECEIVEDATA9?SC95F_USCI0
   *DEL*:           000007H   BYTE   UNIT     CODE           ?PR?_USCI0_TWI_SENDADDR?SC95F_USCI0
   *DEL*:           000061H   BYTE   UNIT     CODE           ?PR?_USCI0_SPI_WRITEFIFO?SC95F_USCI0
   *DEL*:           000004H   BYTE   UNIT     XDATA          ?XD?_USCI0_SPI_WRITEFIFO?SC95F_USCI0
   *DEL*:           000035H   BYTE   UNIT     CODE           ?PR?_INT_DEINIT?SC95F_INT
   *DEL*:           00002BH   BYTE   UNIT     CODE           ?PR?_INT0_SETTRIGGERMODE?SC95F_INT
   *DEL*:           00002BH   BYTE   UNIT     CODE           ?PR?_INT2_SETTRIGGERMODE?SC95F_INT
   *DEL*:           000016H   BYTE   UNIT     CODE           ?PR?_INT0_ITCONFIG?SC95F_INT
   *DEL*:           000016H   BYTE   UNIT     CODE           ?PR?_INT2_ITCONFIG?SC95F_INT
   *DEL*:           000026H   BYTE   UNIT     CODE           ?PR?GPIO_DEINIT?SC95F_GPIO
   *DEL*:           000028H   BYTE   UNIT     CODE           ?PR?_GPIO_WRITE?SC95F_GPIO
   *DEL*:           00001DH   BYTE   UNIT     CODE           ?PR?_GPIO_READPORT?SC95F_GPIO
   *DEL*:           00007AH   BYTE   UNIT     CODE           ?PR?_GPIO_IOH_CONFIG?SC95F_GPIO
LX51 LINKER/LOCATER V4.66.97.0                                                        09/08/2023  13:28:22  PAGE 5





OVERLAY MAP OF MODULE:   ..\Output\IR_TEST (MAIN)


FUNCTION/MODULE                               XDATA_GROUP
--> CALLED FUNCTION/MODULE                    START  STOP
=========================================================
INT0INTERRUPT/SC_IT                           ----- -----

*** NEW ROOT ********************************

TIMER0INTERRUPT/SC_IT                         ----- -----

*** NEW ROOT ********************************

INT1INTERRUPT/SC_IT                           ----- -----

*** NEW ROOT ********************************

TIMER1INTERRUPT/SC_IT                         ----- -----

*** NEW ROOT ********************************

UART0INTERRUPT/SC_IT                          ----- -----

*** NEW ROOT ********************************

TIMER2INTERRUPT/SC_IT                         ----- -----

*** NEW ROOT ********************************

ADCINTERRUPT/SC_IT                            ----- -----

*** NEW ROOT ********************************

USCI0INTERRUPT/SC_IT                          ----- -----
  +--> _USCI0_GETFLAGSTATUS/SC95F_USCI0
  +--> _USCI0_CLEARFLAG/SC95F_USCI0

_USCI0_GETFLAGSTATUS/SC95F_USCI0              ----- -----

_USCI0_CLEARFLAG/SC95F_USCI0                  ----- -----

*** NEW ROOT ********************************

PWMINTERRUPT/SC_IT                            ----- -----

*** NEW ROOT ********************************

BTMINTERRUPT/SC_IT                            ----- -----

*** NEW ROOT ********************************

INT2INTERRUPT/SC_IT                           ----- -----

*** NEW ROOT ********************************

ACMPINTERRUPT/SC_IT                           ----- -----

*** NEW ROOT ********************************

TIMER3INTERRUPT/SC_IT                         ----- -----

LX51 LINKER/LOCATER V4.66.97.0                                                        09/08/2023  13:28:22  PAGE 6


*** NEW ROOT ********************************

TIMER4INTERRUPT/SC_IT                         ----- -----

*** NEW ROOT ********************************

USCI1INTERRUPT/SC_IT                          ----- -----

*** NEW ROOT ********************************

USCI2INTERRUPT/SC_IT                          ----- -----

*** NEW ROOT ********************************

USCI3INTERRUPT/SC_IT                          ----- -----

*** NEW ROOT ********************************

USCI4INTERRUPT/SC_IT                          ----- -----

*** NEW ROOT ********************************

USCI5INTERRUPT/SC_IT                          ----- -----

*** NEW ROOT ********************************

LPDINTERRUPT/SC_IT                            ----- -----

*** NEW ROOT ********************************

?C_C51STARTUP                                 ----- -----
  +--> MAIN/MAIN
  +--> ?C_INITSEG

MAIN/MAIN                                     ----- -----
  +--> SC_INIT/SC_INIT
  +--> _GPIO_WRITELOW/SC95F_GPIO
  +--> _GPIO_WRITEHIGH/SC95F_GPIO
  +--> IR_RECEIVE_POCESS/IR

SC_INIT/SC_INIT                               ----- -----
  +--> SC_GPIO_INIT/SC_INIT
  +--> SC_USCI0_INIT/SC_INIT
  +--> SC_TIM0_INIT/SC_INIT
  +--> SC_INT_INIT/SC_INIT

SC_GPIO_INIT/SC_INIT                          ----- -----
  +--> _GPIO_INIT/SC95F_GPIO

_GPIO_INIT/SC95F_GPIO                         ----- -----

SC_USCI0_INIT/SC_INIT                         ----- -----
  +--> _GPIO_INIT/SC95F_GPIO
  +--> _USCI0_ITCONFIG/SC95F_USCI0
  +--> _USCI0_UART_INIT/SC95F_USCI0

_USCI0_ITCONFIG/SC95F_USCI0                   ----- -----

_USCI0_UART_INIT/SC95F_USCI0                  000BH 0014H

SC_TIM0_INIT/SC_INIT                          ----- -----
  +--> _TIM0_TIMEBASEINIT/SC95F_TIMER0
  +--> _TIM0_WORKMODECONFIG/SC95F_TIMER0
  +--> _TIM0_ITCONFIG/SC95F_TIMER0
  +--> _TIM0_CMD/SC95F_TIMER0
LX51 LINKER/LOCATER V4.66.97.0                                                        09/08/2023  13:28:22  PAGE 7



_TIM0_TIMEBASEINIT/SC95F_TIMER0               ----- -----

_TIM0_WORKMODECONFIG/SC95F_TIMER0             000BH 000CH
  +--> _TIM0_WORKMODE0CONFIG/SC95F_TIMER0
  +--> _TIM0_WORKMODE1CONFIG/SC95F_TIMER0
  +--> _TIM0_WORKMODE2CONFIG/SC95F_TIMER0
  +--> _TIM0_WORKMODE3CONFIG/SC95F_TIMER0

_TIM0_WORKMODE0CONFIG/SC95F_TIMER0            ----- -----

_TIM0_WORKMODE1CONFIG/SC95F_TIMER0            ----- -----

_TIM0_WORKMODE2CONFIG/SC95F_TIMER0            ----- -----

_TIM0_WORKMODE3CONFIG/SC95F_TIMER0            ----- -----

_TIM0_ITCONFIG/SC95F_TIMER0                   ----- -----

_TIM0_CMD/SC95F_TIMER0                        ----- -----

SC_INT_INIT/SC_INIT                           ----- -----
  +--> _GPIO_INIT/SC95F_GPIO
  +--> _INT1_SETTRIGGERMODE/SC95F_INT
  +--> _INT1_ITCONFIG/SC95F_INT

_INT1_SETTRIGGERMODE/SC95F_INT                ----- -----

_INT1_ITCONFIG/SC95F_INT                      ----- -----

_GPIO_WRITELOW/SC95F_GPIO                     ----- -----

_GPIO_WRITEHIGH/SC95F_GPIO                    ----- -----

IR_RECEIVE_POCESS/IR                          000BH 0013H
  +--> IR_RECEIVE/IR
  +--> _USCI0_UART_SENDDATA8/SC95F_USCI0

IR_RECEIVE/IR                                 ----- -----
  +--> _GPIO_READPIN/SC95F_GPIO

_GPIO_READPIN/SC95F_GPIO                      ----- -----

_USCI0_UART_SENDDATA8/SC95F_USCI0             ----- -----

?C_INITSEG                                    ----- -----



PUBLIC SYMBOLS OF MODULE:  ..\Output\IR_TEST (MAIN)


      VALUE       CLASS    TYPE      PUBLIC SYMBOL NAME
      =================================================
*DEL*:00000000H   XDATA    BYTE      ?_USCI0_SPI_Init?BYTE
      0200000BH   XDATA    BYTE      ?_USCI0_UART_Init?BYTE
      00000000H   NUMBER   ---       ?C?CODESEG
      01000100H   CODE     ---       ?C?IILDX
      01000116H   CODE     ---       ?C?ILDOPTR
      01000253H   CODE     ---       ?C?LLDXDATA
      0100025FH   CODE     ---       ?C?LLDXDATA0
      01000240H   CODE     ---       ?C?LSHL
      01000277H   CODE     ---       ?C?LSTKXDATA
      0100026BH   CODE     ---       ?C?LSTXDATA
      010002A8H   CODE     ---       ?C?PLDXDATA
LX51 LINKER/LOCATER V4.66.97.0                                                        09/08/2023  13:28:22  PAGE 8


      010002B1H   CODE     ---       ?C?PSTXDATA
      0100021CH   CODE     ---       ?C?ULCMP
      0100018AH   CODE     ---       ?C?ULDIV
      0100022DH   CODE     ---       ?C?ULSHR
      00000000H   NUMBER   ---       ?C?XDATASEG
      0100030FH   CODE     ---       ?C_START
      01000000H   CODE     ---       ?C_STARTUP
      01000488H   CODE     ---       _GPIO_Init
*DEL*:00000000H   CODE     ---       _GPIO_IOH_Config
      010007A8H   CODE     ---       _GPIO_ReadPin
*DEL*:00000000H   CODE     ---       _GPIO_ReadPort
*DEL*:00000000H   CODE     ---       _GPIO_Write
      0100074AH   CODE     ---       _GPIO_WriteHigh
      01000776H   CODE     ---       _GPIO_WriteLow
*DEL*:00000000H   CODE     ---       _INT0_ITConfig
*DEL*:00000000H   CODE     ---       _INT0_SetTriggerMode
      010005F5H   CODE     ---       _INT1_ITConfig
      0100071FH   CODE     ---       _INT1_SetTriggerMode
*DEL*:00000000H   CODE     ---       _INT2_ITConfig
*DEL*:00000000H   CODE     ---       _INT2_SetTriggerMode
*DEL*:00000000H   CODE     ---       _INT_DeInit
      01000623H   CODE     ---       _TIM0_Cmd
      010006CDH   CODE     ---       _TIM0_ITConfig
*DEL*:00000000H   CODE     ---       _TIM0_Mode0SetReloadCounter
*DEL*:00000000H   CODE     ---       _TIM0_Mode1SetReloadCounter
*DEL*:00000000H   CODE     ---       _TIM0_SetTH0Counter
*DEL*:00000000H   CODE     ---       _TIM0_SetTL0Counter
      010006F5H   CODE     ---       _TIM0_TimeBaseInit
      010006BBH   CODE     ---       _TIM0_WorkMode0Config
      01000695H   CODE     ---       _TIM0_WorkMode1Config
      010006B0H   CODE     ---       _TIM0_WorkMode2Config
      010006A6H   CODE     ---       _TIM0_WorkMode3Config
      0100065BH   CODE     ---       _TIM0_WorkModeConfig
      010008CAH   CODE     ---       _USCI0_ClearFlag
      010008FCH   CODE     ---       _USCI0_GetFlagStatus
*DEL*:00000000H   CODE     ---       _USCI0_GetTWIStatus
      010006DFH   CODE     ---       _USCI0_ITConfig
*DEL*:00000000H   CODE     ---       _USCI0_SPI_Cmd
*DEL*:00000000H   CODE     ---       _USCI0_SPI_Init
*DEL*:00000000H   CODE     ---       _USCI0_SPI_SendData_16
*DEL*:00000000H   CODE     ---       _USCI0_SPI_SendData_8
*DEL*:00000000H   CODE     ---       _USCI0_SPI_WriteFIFO
*DEL*:00000000H   CODE     ---       _USCI0_TransmissionMode
*DEL*:00000000H   CODE     ---       _USCI0_TWI_AcknowledgeConfig
*DEL*:00000000H   CODE     ---       _USCI0_TWI_Cmd
*DEL*:00000000H   CODE     ---       _USCI0_TWI_GeneralCallCmd
*DEL*:00000000H   CODE     ---       _USCI0_TWI_MasterCommunicationRate
*DEL*:00000000H   CODE     ---       _USCI0_TWI_SendAddr
*DEL*:00000000H   CODE     ---       _USCI0_TWI_SendData
*DEL*:00000000H   CODE     ---       _USCI0_TWI_Slave_Init
*DEL*:00000000H   CODE     ---       _USCI0_TWI_SlaveClockExtension
      0100058BH   CODE     ---       _USCI0_UART_Init
      010006A3H   CODE     ---       _USCI0_UART_SendData8
*DEL*:00000000H   CODE     ---       _USCI0_UART_SendData9
*SFR* 000000D0H.6 DATA     BIT       AC
*SFR* 000000E0H   DATA     BYTE      ACC
      0100092FH   CODE     ---       ACMPInterrupt
*SFR* 000000ABH   DATA     BYTE      ADCCFG0
*SFR* 000000ACH   DATA     BYTE      ADCCFG1
*SFR* 000000B5H   DATA     BYTE      ADCCFG2
*SFR* 000000ADH   DATA     BYTE      ADCCON
      0100087DH   CODE     ---       ADCInterrupt
*SFR* 000000AFH   DATA     BYTE      ADCVH
*SFR* 000000AEH   DATA     BYTE      ADCVL
      02000018H   XDATA    BYTE      after720usflag
LX51 LINKER/LOCATER V4.66.97.0                                                        09/08/2023  13:28:22  PAGE 9


*SFR* 000000F0H   DATA     BYTE      B
*SFR* 000000FBH   DATA     BYTE      BTMCON
      0100092DH   CODE     ---       BTMInterrupt
*SFR* 000000B6H   DATA     BYTE      CMPCFG
*SFR* 000000B7H   DATA     BYTE      CMPCON
*SFR* 000000C8H.0 DATA     BIT       CP
*SFR* 000000FCH   DATA     BYTE      CRCINX
*SFR* 000000FDH   DATA     BYTE      CRCREG
*SFR* 000000D0H.7 DATA     BIT       CY
*SFR* 00000093H   DATA     BYTE      DDRCON
*SFR* 00000083H   DATA     BYTE      DPH
*SFR* 00000085H   DATA     BYTE      DPH1
*SFR* 00000082H   DATA     BYTE      DPL
*SFR* 00000084H   DATA     BYTE      DPL1
*SFR* 00000086H   DATA     BYTE      DPS
*SFR* 000000A8H.7 DATA     BIT       EA
*SFR* 000000A8H.6 DATA     BIT       EADC
*SFR* 000000A8H.0 DATA     BIT       EINT0
*SFR* 000000A8H.2 DATA     BIT       EINT1
*SFR* 000000A8H.1 DATA     BIT       ET0
*SFR* 000000A8H.3 DATA     BIT       ET1
*SFR* 000000A8H.5 DATA     BIT       ET2
*SFR* 000000A8H.4 DATA     BIT       EUART
*SFR* 000000E9H   DATA     BYTE      EXA0
*SFR* 000000EAH   DATA     BYTE      EXA1
*SFR* 000000EBH   DATA     BYTE      EXA2
*SFR* 000000ECH   DATA     BYTE      EXA3
*SFR* 000000F7H   DATA     BYTE      EXADH
*SFR* 000000EEH   DATA     BYTE      EXBH
*SFR* 000000EDH   DATA     BYTE      EXBL
*SFR* 000000C8H.3 DATA     BIT       EXENX
*SFR* 000000C8H.6 DATA     BIT       EXFX
*SFR* 000000D0H.5 DATA     BIT       F0
*SFR* 000000D0H.1 DATA     BIT       F1
*DEL*:00000000H   CODE     ---       GPIO_DeInit
      0200001DH   XDATA    BYTE      head1080usflag
      0200001BH   XDATA    BYTE      head705flag
      02000019H   XDATA    WORD      headcount
      0200001CH   XDATA    BYTE      headcountflag
*SFR* 000000F4H   DATA     BYTE      IAPADE
*SFR* 000000F3H   DATA     BYTE      IAPADH
*SFR* 000000F2H   DATA     BYTE      IAPADL
*SFR* 000000F6H   DATA     BYTE      IAPCTL
*SFR* 000000F5H   DATA     BYTE      IAPDAT
*SFR* 000000F1H   DATA     BYTE      IAPKEY
*SFR* 000000A8H   DATA     BYTE      IE
*SFR* 000000A9H   DATA     BYTE      IE1
*SFR* 000000AAH   DATA     BYTE      IE2
*SFR* 000000B4H   DATA     BYTE      INT0F
      010007DDH   CODE     ---       INT0Interrupt
*SFR* 000000BBH   DATA     BYTE      INT0R
*SFR* 000000BCH   DATA     BYTE      INT1F
      01000851H   CODE     ---       INT1Interrupt
*SFR* 000000BDH   DATA     BYTE      INT1R
*SFR* 000000BEH   DATA     BYTE      INT2F
      0100092EH   CODE     ---       INT2Interrupt
*SFR* 000000BFH   DATA     BYTE      INT2R
*SFR* 00000096H   DATA     BYTE      IOHCON0
*SFR* 00000097H   DATA     BYTE      IOHCON1
*SFR* 000000B8H   DATA     BYTE      IP
*SFR* 000000B9H   DATA     BYTE      IP1
*SFR* 000000BAH   DATA     BYTE      IP2
*SFR* 000000B8H.6 DATA     BIT       IPADC
*SFR* 000000B8H.0 DATA     BIT       IPINT0
*SFR* 000000B8H.2 DATA     BIT       IPINT1
LX51 LINKER/LOCATER V4.66.97.0                                                        09/08/2023  13:28:22  PAGE 10


*SFR* 000000B8H.1 DATA     BIT       IPT0
*SFR* 000000B8H.3 DATA     BIT       IPT1
*SFR* 000000B8H.5 DATA     BIT       IPT2
*SFR* 000000B8H.4 DATA     BIT       IPUART
      0100062CH   CODE     ---       ir_receive
      01000396H   CODE     ---       ir_receive_pocess
      02000016H   XDATA    BYTE      itcount
      01000937H   CODE     ---       LPDInterrupt
      01000368H   CODE     ---       main
*SFR* 000000EFH   DATA     BYTE      OPERCON
*SFR* 000000FEH   DATA     BYTE      OPINX
*SFR* 000000FFH   DATA     BYTE      OPREG
*SFR* 0000008FH   DATA     BYTE      OTCON
*SFR* 000000D0H.2 DATA     BIT       OV
*SFR* 000000D0H.0 DATA     BIT       P
*SFR* 00000080H   DATA     BYTE      P0
*SFR* 00000080H.0 DATA     BIT       P00
*SFR* 00000080H.1 DATA     BIT       P01
*SFR* 00000080H.2 DATA     BIT       P02
*SFR* 00000080H.3 DATA     BIT       P03
*SFR* 00000080H.4 DATA     BIT       P04
*SFR* 00000080H.5 DATA     BIT       P05
*SFR* 00000080H.6 DATA     BIT       P06
*SFR* 00000080H.7 DATA     BIT       P07
*SFR* 0000009AH   DATA     BYTE      P0CON
*SFR* 0000009BH   DATA     BYTE      P0PH
*SFR* 0000009CH   DATA     BYTE      P0VO
*SFR* 00000090H   DATA     BYTE      P1
*SFR* 00000090H.0 DATA     BIT       P10
*SFR* 00000090H.1 DATA     BIT       P11
*SFR* 00000090H.2 DATA     BIT       P12
*SFR* 00000090H.3 DATA     BIT       P13
*SFR* 00000090H.4 DATA     BIT       P14
*SFR* 00000090H.5 DATA     BIT       P15
*SFR* 00000090H.6 DATA     BIT       P16
*SFR* 00000090H.7 DATA     BIT       P17
*SFR* 00000091H   DATA     BYTE      P1CON
*SFR* 00000092H   DATA     BYTE      P1PH
*SFR* 00000094H   DATA     BYTE      P1VO
*SFR* 000000A0H   DATA     BYTE      P2
*SFR* 000000A0H.0 DATA     BIT       P20
*SFR* 000000A0H.1 DATA     BIT       P21
*SFR* 000000A0H.2 DATA     BIT       P22
*SFR* 000000A0H.3 DATA     BIT       P23
*SFR* 000000A0H.4 DATA     BIT       P24
*SFR* 000000A0H.5 DATA     BIT       P25
*SFR* 000000A0H.6 DATA     BIT       P26
*SFR* 000000A0H.7 DATA     BIT       P27
*SFR* 000000A1H   DATA     BYTE      P2CON
*SFR* 000000A2H   DATA     BYTE      P2PH
*SFR* 000000A3H   DATA     BYTE      P2VO
*SFR* 000000B0H   DATA     BYTE      P3
*SFR* 000000B0H.0 DATA     BIT       P30
*SFR* 000000B0H.1 DATA     BIT       P31
*SFR* 000000B0H.2 DATA     BIT       P32
*SFR* 000000B0H.3 DATA     BIT       P33
*SFR* 000000B0H.4 DATA     BIT       P34
*SFR* 000000B0H.5 DATA     BIT       P35
*SFR* 000000B0H.6 DATA     BIT       P36
*SFR* 000000B0H.7 DATA     BIT       P37
*SFR* 000000B1H   DATA     BYTE      P3CON
*SFR* 000000B2H   DATA     BYTE      P3PH
*SFR* 000000B3H   DATA     BYTE      P3VO
*SFR* 000000C0H   DATA     BYTE      P4
*SFR* 000000C0H.0 DATA     BIT       P40
LX51 LINKER/LOCATER V4.66.97.0                                                        09/08/2023  13:28:22  PAGE 11


*SFR* 000000C0H.1 DATA     BIT       P41
*SFR* 000000C0H.2 DATA     BIT       P42
*SFR* 000000C0H.3 DATA     BIT       P43
*SFR* 000000C0H.4 DATA     BIT       P44
*SFR* 000000C0H.5 DATA     BIT       P45
*SFR* 000000C0H.6 DATA     BIT       P46
*SFR* 000000C0H.7 DATA     BIT       P47
*SFR* 000000C1H   DATA     BYTE      P4CON
*SFR* 000000C2H   DATA     BYTE      P4PH
*SFR* 000000D8H   DATA     BYTE      P5
*SFR* 000000D8H.0 DATA     BIT       P50
*SFR* 000000D8H.1 DATA     BIT       P51
*SFR* 000000D8H.2 DATA     BIT       P52
*SFR* 000000D8H.3 DATA     BIT       P53
*SFR* 000000D8H.4 DATA     BIT       P54
*SFR* 000000D8H.5 DATA     BIT       P55
*SFR* 000000D9H   DATA     BYTE      P5CON
*SFR* 000000DAH   DATA     BYTE      P5PH
*SFR* 00000087H   DATA     BYTE      PCON
*SFR* 000000D0H   DATA     BYTE      PSW
*SFR* 000000D1H   DATA     BYTE      PWMCFG
*SFR* 000000D2H   DATA     BYTE      PWMCON0
*SFR* 000000D3H   DATA     BYTE      PWMCON1
*SFR* 000000D6H   DATA     BYTE      PWMDFR
*SFR* 000000D7H   DATA     BYTE      PWMFLT
      0100092CH   CODE     ---       PWMInterrupt
*SFR* 000000D5H   DATA     BYTE      PWMPDH
*SFR* 000000D4H   DATA     BYTE      PWMPDL
*SFR* 00000098H.2 DATA     BIT       RB8
*SFR* 000000CBH   DATA     BYTE      RCAPXH
*SFR* 000000CAH   DATA     BYTE      RCAPXL
*SFR* 000000C8H.5 DATA     BIT       RCLKX
      02000004H   XDATA    BYTE      receive_bit
      02000000H   XDATA    ---       receive_buf
*SFR* 00000098H.4 DATA     BIT       REN
*SFR* 00000098H.0 DATA     BIT       RI
*SFR* 000000DFH   DATA     BYTE      ROMBNK
*SFR* 000000D0H.3 DATA     BIT       RS0
*SFR* 000000D0H.4 DATA     BIT       RS1
*SFR* 00000099H   DATA     BYTE      SBUF
*DEL*:00000000H   CODE     ---       SC_ACMP_Init
*DEL*:00000000H   CODE     ---       SC_ADC_Init
*DEL*:00000000H   CODE     ---       SC_BTM_Init
*DEL*:00000000H   CODE     ---       SC_CHKSUM_Init
*DEL*:00000000H   CODE     ---       SC_CRC_Init
*DEL*:00000000H   CODE     ---       SC_DDIC_Init
      01000482H   CODE     ---       SC_GPIO_Init
*DEL*:00000000H   CODE     ---       SC_IAP_Init
      01000477H   CODE     ---       SC_Init
      010005E3H   CODE     ---       SC_INT_Init
*DEL*:00000000H   CODE     ---       SC_LPD_Init
*DEL*:00000000H   CODE     ---       SC_MDU_Init
*DEL*:00000000H   CODE     ---       SC_OPTION_Init
*DEL*:00000000H   CODE     ---       SC_PGA_Init
*DEL*:00000000H   CODE     ---       SC_PWM0_Init
*DEL*:00000000H   CODE     ---       SC_PWM1_Init
*DEL*:00000000H   CODE     ---       SC_PWM2_Init
*DEL*:00000000H   CODE     ---       SC_PWM3_Init
*DEL*:00000000H   CODE     ---       SC_PWM4_Init
*DEL*:00000000H   CODE     ---       SC_PWM_Init
*DEL*:00000000H   CODE     ---       SC_PWR_Init
*DEL*:00000000H   CODE     ---       SC_SSI0_Init
*DEL*:00000000H   CODE     ---       SC_SSI1_Init
*DEL*:00000000H   CODE     ---       SC_SSI_Init
      0100060BH   CODE     ---       SC_TIM0_Init
LX51 LINKER/LOCATER V4.66.97.0                                                        09/08/2023  13:28:22  PAGE 12


*DEL*:00000000H   CODE     ---       SC_TIM1_Init
*DEL*:00000000H   CODE     ---       SC_TIM2_Init
*DEL*:00000000H   CODE     ---       SC_TIM3_Init
*DEL*:00000000H   CODE     ---       SC_TIM4_Init
*DEL*:00000000H   CODE     ---       SC_UART0_Init
      0100055AH   CODE     ---       SC_USCI0_Init
*DEL*:00000000H   CODE     ---       SC_USCI1_Init
*DEL*:00000000H   CODE     ---       SC_USCI2_Init
*DEL*:00000000H   CODE     ---       SC_USCI3_Init
*DEL*:00000000H   CODE     ---       SC_USCI4_Init
*DEL*:00000000H   CODE     ---       SC_USCI5_Init
*DEL*:00000000H   CODE     ---       SC_WDT_Init
*SFR* 00000098H   DATA     BYTE      SCON
      02000008H   XDATA    ---       send_buf
      02000005H   XDATA    ---       send_data
      02000015H   XDATA    BYTE      sendendflag
*SFR* 00000098H.7 DATA     BIT       SM0
*SFR* 00000098H.6 DATA     BIT       SM1
*SFR* 00000098H.5 DATA     BIT       SM2
*SFR* 00000081H   DATA     BYTE      SP
      02000017H   XDATA    BYTE      start_receiveflag
*SFR* 00000098H.3 DATA     BIT       TB8
*SFR* 000000C8H.4 DATA     BIT       TCLKX
*SFR* 00000088H   DATA     BYTE      TCON
*SFR* 00000088H.5 DATA     BIT       TF0
*SFR* 00000088H.7 DATA     BIT       TF1
*SFR* 000000C8H.7 DATA     BIT       TFX
*SFR* 0000008CH   DATA     BYTE      TH0
*SFR* 0000008DH   DATA     BYTE      TH1
*SFR* 000000CDH   DATA     BYTE      THX
*SFR* 00000098H.1 DATA     BIT       TI
*DEL*:00000000H   CODE     ---       TIM0_DeInit
      010007E1H   CODE     ---       Timer0Interrupt
      0100087AH   CODE     ---       Timer1Interrupt
      0100087CH   CODE     ---       Timer2Interrupt
      01000930H   CODE     ---       Timer3Interrupt
      01000931H   CODE     ---       Timer4Interrupt
*SFR* 0000008AH   DATA     BYTE      TL0
*SFR* 0000008BH   DATA     BYTE      TL1
*SFR* 000000CCH   DATA     BYTE      TLX
*SFR* 0000008EH   DATA     BYTE      TMCON
*SFR* 00000089H   DATA     BYTE      TMOD
      0200001EH   XDATA    BYTE      toggle
*SFR* 00000088H.4 DATA     BIT       TR0
*SFR* 00000088H.6 DATA     BIT       TR1
*SFR* 000000C8H.2 DATA     BIT       TRX
*SFR* 000000C8H.1 DATA     BIT       TX
*SFR* 000000C8H   DATA     BYTE      TXCON
*SFR* 000000CEH   DATA     BYTE      TXINX
*SFR* 000000C9H   DATA     BYTE      TXMOD
      0100087BH   CODE     ---       UART0Interrupt
*SFR* 00000095H   DATA     BYTE      US0CON0
*SFR* 0000009DH   DATA     BYTE      US0CON1
*SFR* 0000009EH   DATA     BYTE      US0CON2
*SFR* 0000009FH   DATA     BYTE      US0CON3
*SFR* 000000A4H   DATA     BYTE      US1CON0
*SFR* 000000A5H   DATA     BYTE      US1CON1
*SFR* 000000A6H   DATA     BYTE      US1CON2
*SFR* 000000A7H   DATA     BYTE      US1CON3
*DEL*:00000000H   CODE     ---       USCI0_DeInit
*DEL*:00000000H   CODE     ---       USCI0_SPI_ReceiveData_16
*DEL*:00000000H   CODE     ---       USCI0_SPI_ReceiveData_8
*DEL*:00000000H   CODE     ---       USCI0_TWI_MasterModeStop
*DEL*:00000000H   CODE     ---       USCI0_TWI_ReceiveData
*DEL*:00000000H   CODE     ---       USCI0_TWI_Start
LX51 LINKER/LOCATER V4.66.97.0                                                        09/08/2023  13:28:22  PAGE 13


*DEL*:00000000H   CODE     ---       USCI0_UART_ReceiveData8
*DEL*:00000000H   CODE     ---       USCI0_UART_ReceiveData9
      0100087EH   CODE     ---       USCI0Interrupt
      01000932H   CODE     ---       USCI1Interrupt
      01000933H   CODE     ---       USCI2Interrupt
      01000934H   CODE     ---       USCI3Interrupt
      01000935H   CODE     ---       USCI4Interrupt
      01000936H   CODE     ---       USCI5Interrupt
*SFR* 000000C4H   DATA     BYTE      USXCON0
*SFR* 000000C5H   DATA     BYTE      USXCON1
*SFR* 000000C6H   DATA     BYTE      USXCON2
*SFR* 000000C7H   DATA     BYTE      USXCON3
*SFR* 000000DCH   DATA     BYTE      USXINX
*SFR* 000000CFH   DATA     BYTE      WDTCON



LINKER CODE PACKING SYMBOLS OF MODULE:  ..\Output\IR_TEST (MAIN)


      VALUE       CLASS    TYPE      SYMBOL NAME
      ==========================================
      01000457H   CODE     PART      ?L?COM0001
      01000457H   CODE     END       ?L?COM0002
      010005D7H   CODE     PART      ?L?COM0003
      01000842H   CODE     PART      ?L?COM0004
      010005CCH   CODE     PART      ?L?COM0005
      0100046BH   CODE     PART      ?L?COM0006
      0100068CH   CODE     PART      ?L?COM0007
      0100069BH   CODE     PART      ?L?COM0008
      01000463H   CODE     PART      ?L?COM0009



SYMBOL TABLE OF MODULE:  ..\Output\IR_TEST (MAIN)

      VALUE       REP       CLASS    TYPE      SYMBOL NAME
      ====================================================
      ---         MODULE    ---      ---       MAIN
      0200001EH   PUBLIC    XDATA    BYTE      toggle
      01000368H   PUBLIC    CODE     ---       main
      000000C8H.2 SFRSYM    DATA     BIT       TRX
      000000FFH   SFRSYM    DATA     BYTE      OPREG
      00000080H   SFRSYM    DATA     BYTE      P0
      00000090H   SFRSYM    DATA     BYTE      P1
      000000A0H   SFRSYM    DATA     BYTE      P2
      000000A8H.4 SFRSYM    DATA     BIT       EUART
      0000008EH   SFRSYM    DATA     BYTE      TMCON
      000000B0H   SFRSYM    DATA     BYTE      P3
      000000D0H.6 SFRSYM    DATA     BIT       AC
      000000C0H   SFRSYM    DATA     BYTE      P4
      0000008FH   SFRSYM    DATA     BYTE      OTCON
      000000D8H   SFRSYM    DATA     BYTE      P5
      000000A8H.7 SFRSYM    DATA     BIT       EA
      000000C8H.5 SFRSYM    DATA     BIT       RCLKX
      000000D2H   SFRSYM    DATA     BYTE      PWMCON0
      000000C8H.4 SFRSYM    DATA     BIT       TCLKX
      000000D3H   SFRSYM    DATA     BYTE      PWMCON1
      000000C8H.3 SFRSYM    DATA     BIT       EXENX
      000000A8H.6 SFRSYM    DATA     BIT       EADC
      000000C9H   SFRSYM    DATA     BYTE      TXMOD
      000000C8H   SFRSYM    DATA     BYTE      TXCON
      000000A8H   SFRSYM    DATA     BYTE      IE
      00000085H   SFRSYM    DATA     BYTE      DPH1
      000000E9H   SFRSYM    DATA     BYTE      EXA0
LX51 LINKER/LOCATER V4.66.97.0                                                        09/08/2023  13:28:22  PAGE 14


      000000FEH   SFRSYM    DATA     BYTE      OPINX
      000000EAH   SFRSYM    DATA     BYTE      EXA1
      000000EBH   SFRSYM    DATA     BYTE      EXA2
      000000ECH   SFRSYM    DATA     BYTE      EXA3
      00000084H   SFRSYM    DATA     BYTE      DPL1
      000000C8H.0 SFRSYM    DATA     BIT       CP
      000000C4H   SFRSYM    DATA     BYTE      USXCON0
      000000C5H   SFRSYM    DATA     BYTE      USXCON1
      000000C6H   SFRSYM    DATA     BYTE      USXCON2
      000000C7H   SFRSYM    DATA     BYTE      USXCON3
      000000EFH   SFRSYM    DATA     BYTE      OPERCON
      0000009BH   SFRSYM    DATA     BYTE      P0PH
      000000B8H   SFRSYM    DATA     BYTE      IP
      00000092H   SFRSYM    DATA     BYTE      P1PH
      00000098H.0 SFRSYM    DATA     BIT       RI
      000000A2H   SFRSYM    DATA     BYTE      P2PH
      000000D0H.7 SFRSYM    DATA     BIT       CY
      000000B2H   SFRSYM    DATA     BYTE      P3PH
      00000098H.1 SFRSYM    DATA     BIT       TI
      000000CEH   SFRSYM    DATA     BYTE      TXINX
      000000C2H   SFRSYM    DATA     BYTE      P4PH
      000000B8H.1 SFRSYM    DATA     BIT       IPT0
      000000DAH   SFRSYM    DATA     BYTE      P5PH
      000000B8H.3 SFRSYM    DATA     BIT       IPT1
      000000B8H.5 SFRSYM    DATA     BIT       IPT2
      00000081H   SFRSYM    DATA     BYTE      SP
      000000D0H.2 SFRSYM    DATA     BIT       OV
      000000F4H   SFRSYM    DATA     BYTE      IAPADE
      0000009CH   SFRSYM    DATA     BYTE      P0VO
      00000094H   SFRSYM    DATA     BYTE      P1VO
      000000A3H   SFRSYM    DATA     BYTE      P2VO
      000000EEH   SFRSYM    DATA     BYTE      EXBH
      000000F3H   SFRSYM    DATA     BYTE      IAPADH
      000000B3H   SFRSYM    DATA     BYTE      P3VO
      000000ADH   SFRSYM    DATA     BYTE      ADCCON
      000000C8H.1 SFRSYM    DATA     BIT       TX
      000000EDH   SFRSYM    DATA     BYTE      EXBL
      000000F2H   SFRSYM    DATA     BYTE      IAPADL
      00000080H.0 SFRSYM    DATA     BIT       P00
      00000090H.0 SFRSYM    DATA     BIT       P10
      00000080H.1 SFRSYM    DATA     BIT       P01
      00000099H   SFRSYM    DATA     BYTE      SBUF
      00000087H   SFRSYM    DATA     BYTE      PCON
      000000A0H.0 SFRSYM    DATA     BIT       P20
      00000090H.1 SFRSYM    DATA     BIT       P11
      00000080H.2 SFRSYM    DATA     BIT       P02
      000000B6H   SFRSYM    DATA     BYTE      CMPCFG
      000000B0H.0 SFRSYM    DATA     BIT       P30
      000000A0H.1 SFRSYM    DATA     BIT       P21
      00000090H.2 SFRSYM    DATA     BIT       P12
      00000080H.3 SFRSYM    DATA     BIT       P03
      000000C0H.0 SFRSYM    DATA     BIT       P40
      000000B0H.1 SFRSYM    DATA     BIT       P31
      000000A0H.2 SFRSYM    DATA     BIT       P22
      00000090H.3 SFRSYM    DATA     BIT       P13
      00000080H.4 SFRSYM    DATA     BIT       P04
      00000098H   SFRSYM    DATA     BYTE      SCON
      000000D8H.0 SFRSYM    DATA     BIT       P50
      000000C0H.1 SFRSYM    DATA     BIT       P41
      000000B0H.2 SFRSYM    DATA     BIT       P32
      000000A0H.3 SFRSYM    DATA     BIT       P23
      00000090H.4 SFRSYM    DATA     BIT       P14
      00000080H.5 SFRSYM    DATA     BIT       P05
      000000F5H   SFRSYM    DATA     BYTE      IAPDAT
      00000089H   SFRSYM    DATA     BYTE      TMOD
LX51 LINKER/LOCATER V4.66.97.0                                                        09/08/2023  13:28:22  PAGE 15


      00000088H   SFRSYM    DATA     BYTE      TCON
      000000D8H.1 SFRSYM    DATA     BIT       P51
      000000C0H.2 SFRSYM    DATA     BIT       P42
      000000B0H.3 SFRSYM    DATA     BIT       P33
      000000A0H.4 SFRSYM    DATA     BIT       P24
      00000090H.5 SFRSYM    DATA     BIT       P15
      00000080H.6 SFRSYM    DATA     BIT       P06
      000000B8H.0 SFRSYM    DATA     BIT       IPINT0
      000000D8H.2 SFRSYM    DATA     BIT       P52
      000000C0H.3 SFRSYM    DATA     BIT       P43
      000000B0H.4 SFRSYM    DATA     BIT       P34
      000000A0H.5 SFRSYM    DATA     BIT       P25
      00000090H.6 SFRSYM    DATA     BIT       P16
      00000080H.7 SFRSYM    DATA     BIT       P07
      000000B8H.2 SFRSYM    DATA     BIT       IPINT1
      000000D8H.3 SFRSYM    DATA     BIT       P53
      000000C0H.4 SFRSYM    DATA     BIT       P44
      000000B0H.5 SFRSYM    DATA     BIT       P35
      000000A0H.6 SFRSYM    DATA     BIT       P26
      00000090H.7 SFRSYM    DATA     BIT       P17
      000000FDH   SFRSYM    DATA     BYTE      CRCREG
      000000D8H.4 SFRSYM    DATA     BIT       P54
      000000C0H.5 SFRSYM    DATA     BIT       P45
      000000B0H.6 SFRSYM    DATA     BIT       P36
      000000A0H.7 SFRSYM    DATA     BIT       P27
      000000D8H.5 SFRSYM    DATA     BIT       P55
      000000C0H.6 SFRSYM    DATA     BIT       P46
      000000B0H.7 SFRSYM    DATA     BIT       P37
      000000C0H.7 SFRSYM    DATA     BIT       P47
      000000C8H.6 SFRSYM    DATA     BIT       EXFX
      00000093H   SFRSYM    DATA     BYTE      DDRCON
      000000F6H   SFRSYM    DATA     BYTE      IAPCTL
      000000A9H   SFRSYM    DATA     BYTE      IE1
      000000AAH   SFRSYM    DATA     BYTE      IE2
      000000F0H   SFRSYM    DATA     BYTE      B
      000000B7H   SFRSYM    DATA     BYTE      CMPCON
      000000F1H   SFRSYM    DATA     BYTE      IAPKEY
      000000FBH   SFRSYM    DATA     BYTE      BTMCON
      000000D1H   SFRSYM    DATA     BYTE      PWMCFG
      000000E0H   SFRSYM    DATA     BYTE      ACC
      000000CBH   SFRSYM    DATA     BYTE      RCAPXH
      000000A8H.1 SFRSYM    DATA     BIT       ET0
      000000FCH   SFRSYM    DATA     BYTE      CRCINX
      00000088H.5 SFRSYM    DATA     BIT       TF0
      000000A8H.3 SFRSYM    DATA     BIT       ET1
      000000ABH   SFRSYM    DATA     BYTE      ADCCFG0
      000000B9H   SFRSYM    DATA     BYTE      IP1
      00000088H.7 SFRSYM    DATA     BIT       TF1
      000000A8H.5 SFRSYM    DATA     BIT       ET2
      000000ACH   SFRSYM    DATA     BYTE      ADCCFG1
      000000BAH   SFRSYM    DATA     BYTE      IP2
      000000DFH   SFRSYM    DATA     BYTE      ROMBNK
      00000098H.2 SFRSYM    DATA     BIT       RB8
      000000B5H   SFRSYM    DATA     BYTE      ADCCFG2
      000000CAH   SFRSYM    DATA     BYTE      RCAPXL
      0000008CH   SFRSYM    DATA     BYTE      TH0
      0000008DH   SFRSYM    DATA     BYTE      TH1
      00000098H.3 SFRSYM    DATA     BIT       TB8
      000000D0H.0 SFRSYM    DATA     BIT       P
      00000098H.7 SFRSYM    DATA     BIT       SM0
      0000008AH   SFRSYM    DATA     BYTE      TL0
      00000098H.6 SFRSYM    DATA     BIT       SM1
      000000CFH   SFRSYM    DATA     BYTE      WDTCON
      0000008BH   SFRSYM    DATA     BYTE      TL1
      00000098H.5 SFRSYM    DATA     BIT       SM2
LX51 LINKER/LOCATER V4.66.97.0                                                        09/08/2023  13:28:22  PAGE 16


      000000D6H   SFRSYM    DATA     BYTE      PWMDFR
      000000D5H   SFRSYM    DATA     BYTE      PWMPDH
      000000D0H.3 SFRSYM    DATA     BIT       RS0
      00000088H.4 SFRSYM    DATA     BIT       TR0
      000000D0H.4 SFRSYM    DATA     BIT       RS1
      000000D4H   SFRSYM    DATA     BYTE      PWMPDL
      00000088H.6 SFRSYM    DATA     BIT       TR1
      000000B8H.4 SFRSYM    DATA     BIT       IPUART
      000000D7H   SFRSYM    DATA     BYTE      PWMFLT
      00000083H   SFRSYM    DATA     BYTE      DPH
      00000082H   SFRSYM    DATA     BYTE      DPL
      000000A8H.0 SFRSYM    DATA     BIT       EINT0
      0000009AH   SFRSYM    DATA     BYTE      P0CON
      000000A8H.2 SFRSYM    DATA     BIT       EINT1
      000000B8H.6 SFRSYM    DATA     BIT       IPADC
      000000B4H   SFRSYM    DATA     BYTE      INT0F
      00000091H   SFRSYM    DATA     BYTE      P1CON
      000000BCH   SFRSYM    DATA     BYTE      INT1F
      000000A1H   SFRSYM    DATA     BYTE      P2CON
      000000BEH   SFRSYM    DATA     BYTE      INT2F
      000000B1H   SFRSYM    DATA     BYTE      P3CON
      00000098H.4 SFRSYM    DATA     BIT       REN
      000000C1H   SFRSYM    DATA     BYTE      P4CON
      000000D9H   SFRSYM    DATA     BYTE      P5CON
      000000AFH   SFRSYM    DATA     BYTE      ADCVH
      00000086H   SFRSYM    DATA     BYTE      DPS
      00000095H   SFRSYM    DATA     BYTE      US0CON0
      000000A4H   SFRSYM    DATA     BYTE      US1CON0
      0000009DH   SFRSYM    DATA     BYTE      US0CON1
      000000AEH   SFRSYM    DATA     BYTE      ADCVL
      000000F7H   SFRSYM    DATA     BYTE      EXADH
      000000A5H   SFRSYM    DATA     BYTE      US1CON1
      0000009EH   SFRSYM    DATA     BYTE      US0CON2
      000000A6H   SFRSYM    DATA     BYTE      US1CON2
      0000009FH   SFRSYM    DATA     BYTE      US0CON3
      000000A7H   SFRSYM    DATA     BYTE      US1CON3
      000000BBH   SFRSYM    DATA     BYTE      INT0R
      000000BDH   SFRSYM    DATA     BYTE      INT1R
      000000BFH   SFRSYM    DATA     BYTE      INT2R
      000000DCH   SFRSYM    DATA     BYTE      USXINX
      000000C8H.7 SFRSYM    DATA     BIT       TFX
      00000096H   SFRSYM    DATA     BYTE      IOHCON0
      00000097H   SFRSYM    DATA     BYTE      IOHCON1
      000000CDH   SFRSYM    DATA     BYTE      THX
      000000D0H.5 SFRSYM    DATA     BIT       F0
      000000D0H.1 SFRSYM    DATA     BIT       F1
      000000CCH   SFRSYM    DATA     BYTE      TLX
      000000D0H   SFRSYM    DATA     BYTE      PSW

      01000368H   BLOCK     CODE     ---       LVL=0
      01000368H   LINE      ---      ---       #25
      01000368H   LINE      ---      ---       #26
      01000368H   LINE      ---      ---       #28
      0100036AH   LINE      ---      ---       #33
      0100036AH   LINE      ---      ---       #34
      0100036AH   LINE      ---      ---       #35
      01000376H   LINE      ---      ---       #36
      01000376H   LINE      ---      ---       #37
      0100037CH   LINE      ---      ---       #38
      0100037CH   LINE      ---      ---       #39
      0100037EH   LINE      ---      ---       #40
      01000384H   LINE      ---      ---       #41
      01000386H   LINE      ---      ---       #43
      01000386H   LINE      ---      ---       #44
      0100038CH   LINE      ---      ---       #45
LX51 LINKER/LOCATER V4.66.97.0                                                        09/08/2023  13:28:22  PAGE 17


      01000392H   LINE      ---      ---       #46
      01000392H   LINE      ---      ---       #47
      01000394H   LINE      ---      ---       #48
      01000394H   LINE      ---      ---       #49
      ---         BLOCKEND  ---      ---       LVL=0

      ---         MODULE    ---      ---       SC_INIT
      0100055AH   PUBLIC    CODE     ---       SC_USCI0_Init
      010005E3H   PUBLIC    CODE     ---       SC_INT_Init
      0100060BH   PUBLIC    CODE     ---       SC_TIM0_Init
      01000482H   PUBLIC    CODE     ---       SC_GPIO_Init
      01000477H   PUBLIC    CODE     ---       SC_Init
      000000C8H.2 SFRSYM    DATA     BIT       TRX
      000000FFH   SFRSYM    DATA     BYTE      OPREG
      00000080H   SFRSYM    DATA     BYTE      P0
      00000090H   SFRSYM    DATA     BYTE      P1
      000000A0H   SFRSYM    DATA     BYTE      P2
      000000A8H.4 SFRSYM    DATA     BIT       EUART
      0000008EH   SFRSYM    DATA     BYTE      TMCON
      000000B0H   SFRSYM    DATA     BYTE      P3
      000000D0H.6 SFRSYM    DATA     BIT       AC
      000000C0H   SFRSYM    DATA     BYTE      P4
      0000008FH   SFRSYM    DATA     BYTE      OTCON
      000000D8H   SFRSYM    DATA     BYTE      P5
      000000A8H.7 SFRSYM    DATA     BIT       EA
      000000C8H.5 SFRSYM    DATA     BIT       RCLKX
      000000D2H   SFRSYM    DATA     BYTE      PWMCON0
      000000C8H.4 SFRSYM    DATA     BIT       TCLKX
      000000D3H   SFRSYM    DATA     BYTE      PWMCON1
      000000C8H.3 SFRSYM    DATA     BIT       EXENX
      000000A8H.6 SFRSYM    DATA     BIT       EADC
      000000C9H   SFRSYM    DATA     BYTE      TXMOD
      000000C8H   SFRSYM    DATA     BYTE      TXCON
      000000A8H   SFRSYM    DATA     BYTE      IE
      00000085H   SFRSYM    DATA     BYTE      DPH1
      000000E9H   SFRSYM    DATA     BYTE      EXA0
      000000FEH   SFRSYM    DATA     BYTE      OPINX
      000000EAH   SFRSYM    DATA     BYTE      EXA1
      000000EBH   SFRSYM    DATA     BYTE      EXA2
      000000ECH   SFRSYM    DATA     BYTE      EXA3
      00000084H   SFRSYM    DATA     BYTE      DPL1
      000000C8H.0 SFRSYM    DATA     BIT       CP
      000000C4H   SFRSYM    DATA     BYTE      USXCON0
      000000C5H   SFRSYM    DATA     BYTE      USXCON1
      000000C6H   SFRSYM    DATA     BYTE      USXCON2
      000000C7H   SFRSYM    DATA     BYTE      USXCON3
      000000EFH   SFRSYM    DATA     BYTE      OPERCON
      0000009BH   SFRSYM    DATA     BYTE      P0PH
      000000B8H   SFRSYM    DATA     BYTE      IP
      00000092H   SFRSYM    DATA     BYTE      P1PH
      00000098H.0 SFRSYM    DATA     BIT       RI
      000000A2H   SFRSYM    DATA     BYTE      P2PH
      000000D0H.7 SFRSYM    DATA     BIT       CY
      000000B2H   SFRSYM    DATA     BYTE      P3PH
      00000098H.1 SFRSYM    DATA     BIT       TI
      000000CEH   SFRSYM    DATA     BYTE      TXINX
      000000C2H   SFRSYM    DATA     BYTE      P4PH
      000000B8H.1 SFRSYM    DATA     BIT       IPT0
      000000DAH   SFRSYM    DATA     BYTE      P5PH
      000000B8H.3 SFRSYM    DATA     BIT       IPT1
      000000B8H.5 SFRSYM    DATA     BIT       IPT2
      00000081H   SFRSYM    DATA     BYTE      SP
      000000D0H.2 SFRSYM    DATA     BIT       OV
      000000F4H   SFRSYM    DATA     BYTE      IAPADE
      0000009CH   SFRSYM    DATA     BYTE      P0VO
LX51 LINKER/LOCATER V4.66.97.0                                                        09/08/2023  13:28:22  PAGE 18


      00000094H   SFRSYM    DATA     BYTE      P1VO
      000000A3H   SFRSYM    DATA     BYTE      P2VO
      000000EEH   SFRSYM    DATA     BYTE      EXBH
      000000F3H   SFRSYM    DATA     BYTE      IAPADH
      000000B3H   SFRSYM    DATA     BYTE      P3VO
      000000ADH   SFRSYM    DATA     BYTE      ADCCON
      000000C8H.1 SFRSYM    DATA     BIT       TX
      000000EDH   SFRSYM    DATA     BYTE      EXBL
      000000F2H   SFRSYM    DATA     BYTE      IAPADL
      00000080H.0 SFRSYM    DATA     BIT       P00
      00000090H.0 SFRSYM    DATA     BIT       P10
      00000080H.1 SFRSYM    DATA     BIT       P01
      00000099H   SFRSYM    DATA     BYTE      SBUF
      00000087H   SFRSYM    DATA     BYTE      PCON
      000000A0H.0 SFRSYM    DATA     BIT       P20
      00000090H.1 SFRSYM    DATA     BIT       P11
      00000080H.2 SFRSYM    DATA     BIT       P02
      000000B6H   SFRSYM    DATA     BYTE      CMPCFG
      000000B0H.0 SFRSYM    DATA     BIT       P30
      000000A0H.1 SFRSYM    DATA     BIT       P21
      00000090H.2 SFRSYM    DATA     BIT       P12
      00000080H.3 SFRSYM    DATA     BIT       P03
      000000C0H.0 SFRSYM    DATA     BIT       P40
      000000B0H.1 SFRSYM    DATA     BIT       P31
      000000A0H.2 SFRSYM    DATA     BIT       P22
      00000090H.3 SFRSYM    DATA     BIT       P13
      00000080H.4 SFRSYM    DATA     BIT       P04
      00000098H   SFRSYM    DATA     BYTE      SCON
      000000D8H.0 SFRSYM    DATA     BIT       P50
      000000C0H.1 SFRSYM    DATA     BIT       P41
      000000B0H.2 SFRSYM    DATA     BIT       P32
      000000A0H.3 SFRSYM    DATA     BIT       P23
      00000090H.4 SFRSYM    DATA     BIT       P14
      00000080H.5 SFRSYM    DATA     BIT       P05
      000000F5H   SFRSYM    DATA     BYTE      IAPDAT
      00000089H   SFRSYM    DATA     BYTE      TMOD
      00000088H   SFRSYM    DATA     BYTE      TCON
      000000D8H.1 SFRSYM    DATA     BIT       P51
      000000C0H.2 SFRSYM    DATA     BIT       P42
      000000B0H.3 SFRSYM    DATA     BIT       P33
      000000A0H.4 SFRSYM    DATA     BIT       P24
      00000090H.5 SFRSYM    DATA     BIT       P15
      00000080H.6 SFRSYM    DATA     BIT       P06
      000000B8H.0 SFRSYM    DATA     BIT       IPINT0
      000000D8H.2 SFRSYM    DATA     BIT       P52
      000000C0H.3 SFRSYM    DATA     BIT       P43
      000000B0H.4 SFRSYM    DATA     BIT       P34
      000000A0H.5 SFRSYM    DATA     BIT       P25
      00000090H.6 SFRSYM    DATA     BIT       P16
      00000080H.7 SFRSYM    DATA     BIT       P07
      000000B8H.2 SFRSYM    DATA     BIT       IPINT1
      000000D8H.3 SFRSYM    DATA     BIT       P53
      000000C0H.4 SFRSYM    DATA     BIT       P44
      000000B0H.5 SFRSYM    DATA     BIT       P35
      000000A0H.6 SFRSYM    DATA     BIT       P26
      00000090H.7 SFRSYM    DATA     BIT       P17
      000000FDH   SFRSYM    DATA     BYTE      CRCREG
      000000D8H.4 SFRSYM    DATA     BIT       P54
      000000C0H.5 SFRSYM    DATA     BIT       P45
      000000B0H.6 SFRSYM    DATA     BIT       P36
      000000A0H.7 SFRSYM    DATA     BIT       P27
      000000D8H.5 SFRSYM    DATA     BIT       P55
      000000C0H.6 SFRSYM    DATA     BIT       P46
      000000B0H.7 SFRSYM    DATA     BIT       P37
      000000C0H.7 SFRSYM    DATA     BIT       P47
LX51 LINKER/LOCATER V4.66.97.0                                                        09/08/2023  13:28:22  PAGE 19


      000000C8H.6 SFRSYM    DATA     BIT       EXFX
      00000093H   SFRSYM    DATA     BYTE      DDRCON
      000000F6H   SFRSYM    DATA     BYTE      IAPCTL
      000000A9H   SFRSYM    DATA     BYTE      IE1
      000000AAH   SFRSYM    DATA     BYTE      IE2
      000000F0H   SFRSYM    DATA     BYTE      B
      000000B7H   SFRSYM    DATA     BYTE      CMPCON
      000000F1H   SFRSYM    DATA     BYTE      IAPKEY
      000000FBH   SFRSYM    DATA     BYTE      BTMCON
      000000D1H   SFRSYM    DATA     BYTE      PWMCFG
      000000E0H   SFRSYM    DATA     BYTE      ACC
      000000CBH   SFRSYM    DATA     BYTE      RCAPXH
      000000A8H.1 SFRSYM    DATA     BIT       ET0
      000000FCH   SFRSYM    DATA     BYTE      CRCINX
      00000088H.5 SFRSYM    DATA     BIT       TF0
      000000A8H.3 SFRSYM    DATA     BIT       ET1
      000000ABH   SFRSYM    DATA     BYTE      ADCCFG0
      000000B9H   SFRSYM    DATA     BYTE      IP1
      00000088H.7 SFRSYM    DATA     BIT       TF1
      000000A8H.5 SFRSYM    DATA     BIT       ET2
      000000ACH   SFRSYM    DATA     BYTE      ADCCFG1
      000000BAH   SFRSYM    DATA     BYTE      IP2
      000000DFH   SFRSYM    DATA     BYTE      ROMBNK
      00000098H.2 SFRSYM    DATA     BIT       RB8
      000000B5H   SFRSYM    DATA     BYTE      ADCCFG2
      000000CAH   SFRSYM    DATA     BYTE      RCAPXL
      0000008CH   SFRSYM    DATA     BYTE      TH0
      0000008DH   SFRSYM    DATA     BYTE      TH1
      00000098H.3 SFRSYM    DATA     BIT       TB8
      000000D0H.0 SFRSYM    DATA     BIT       P
      00000098H.7 SFRSYM    DATA     BIT       SM0
      0000008AH   SFRSYM    DATA     BYTE      TL0
      00000098H.6 SFRSYM    DATA     BIT       SM1
      000000CFH   SFRSYM    DATA     BYTE      WDTCON
      0000008BH   SFRSYM    DATA     BYTE      TL1
      00000098H.5 SFRSYM    DATA     BIT       SM2
      000000D6H   SFRSYM    DATA     BYTE      PWMDFR
      000000D5H   SFRSYM    DATA     BYTE      PWMPDH
      000000D0H.3 SFRSYM    DATA     BIT       RS0
      00000088H.4 SFRSYM    DATA     BIT       TR0
      000000D0H.4 SFRSYM    DATA     BIT       RS1
      000000D4H   SFRSYM    DATA     BYTE      PWMPDL
      00000088H.6 SFRSYM    DATA     BIT       TR1
      000000B8H.4 SFRSYM    DATA     BIT       IPUART
      000000D7H   SFRSYM    DATA     BYTE      PWMFLT
      00000083H   SFRSYM    DATA     BYTE      DPH
      00000082H   SFRSYM    DATA     BYTE      DPL
      000000A8H.0 SFRSYM    DATA     BIT       EINT0
      0000009AH   SFRSYM    DATA     BYTE      P0CON
      000000A8H.2 SFRSYM    DATA     BIT       EINT1
      000000B8H.6 SFRSYM    DATA     BIT       IPADC
      000000B4H   SFRSYM    DATA     BYTE      INT0F
      00000091H   SFRSYM    DATA     BYTE      P1CON
      000000BCH   SFRSYM    DATA     BYTE      INT1F
      000000A1H   SFRSYM    DATA     BYTE      P2CON
      000000BEH   SFRSYM    DATA     BYTE      INT2F
      000000B1H   SFRSYM    DATA     BYTE      P3CON
      00000098H.4 SFRSYM    DATA     BIT       REN
      000000C1H   SFRSYM    DATA     BYTE      P4CON
      000000D9H   SFRSYM    DATA     BYTE      P5CON
      000000AFH   SFRSYM    DATA     BYTE      ADCVH
      00000086H   SFRSYM    DATA     BYTE      DPS
      00000095H   SFRSYM    DATA     BYTE      US0CON0
      000000A4H   SFRSYM    DATA     BYTE      US1CON0
      0000009DH   SFRSYM    DATA     BYTE      US0CON1
LX51 LINKER/LOCATER V4.66.97.0                                                        09/08/2023  13:28:22  PAGE 20


      000000AEH   SFRSYM    DATA     BYTE      ADCVL
      000000F7H   SFRSYM    DATA     BYTE      EXADH
      000000A5H   SFRSYM    DATA     BYTE      US1CON1
      0000009EH   SFRSYM    DATA     BYTE      US0CON2
      000000A6H   SFRSYM    DATA     BYTE      US1CON2
      0000009FH   SFRSYM    DATA     BYTE      US0CON3
      000000A7H   SFRSYM    DATA     BYTE      US1CON3
      000000BBH   SFRSYM    DATA     BYTE      INT0R
      000000BDH   SFRSYM    DATA     BYTE      INT1R
      000000BFH   SFRSYM    DATA     BYTE      INT2R
      000000DCH   SFRSYM    DATA     BYTE      USXINX
      000000C8H.7 SFRSYM    DATA     BIT       TFX
      00000096H   SFRSYM    DATA     BYTE      IOHCON0
      00000097H   SFRSYM    DATA     BYTE      IOHCON1
      000000CDH   SFRSYM    DATA     BYTE      THX
      000000D0H.5 SFRSYM    DATA     BIT       F0
      000000D0H.1 SFRSYM    DATA     BIT       F1
      000000CCH   SFRSYM    DATA     BYTE      TLX
      000000D0H   SFRSYM    DATA     BYTE      PSW

      01000477H   BLOCK     CODE     ---       LVL=0
      01000477H   LINE      ---      ---       #25
      01000477H   LINE      ---      ---       #26
      01000477H   LINE      ---      ---       #27
      01000479H   LINE      ---      ---       #28
      0100047BH   LINE      ---      ---       #29
      0100047DH   LINE      ---      ---       #30
      0100047FH   LINE      ---      ---       #33
      01000481H   LINE      ---      ---       #34
      ---         BLOCKEND  ---      ---       LVL=0

      01000482H   BLOCK     CODE     ---       LVL=0
      01000482H   LINE      ---      ---       #53
      01000482H   LINE      ---      ---       #54
      01000482H   LINE      ---      ---       #55
      ---         BLOCKEND  ---      ---       LVL=0

      0100060BH   BLOCK     CODE     ---       LVL=0
      0100060BH   LINE      ---      ---       #76
      0100060BH   LINE      ---      ---       #77
      0100060BH   LINE      ---      ---       #78
      01000611H   LINE      ---      ---       #79
      0100061BH   LINE      ---      ---       #80
      01000621H   LINE      ---      ---       #81
      ---         BLOCKEND  ---      ---       LVL=0

      010005E3H   BLOCK     CODE     ---       LVL=0
      010005E3H   LINE      ---      ---       #201
      010005E3H   LINE      ---      ---       #202
      010005E3H   LINE      ---      ---       #203
      010005EBH   LINE      ---      ---       #205
      010005F1H   LINE      ---      ---       #207
      ---         BLOCKEND  ---      ---       LVL=0

      0100055AH   BLOCK     CODE     ---       LVL=0
      0100055AH   LINE      ---      ---       #250
      0100055AH   LINE      ---      ---       #251
      0100055AH   LINE      ---      ---       #252
      01000562H   LINE      ---      ---       #253
      0100056AH   LINE      ---      ---       #254
      01000570H   LINE      ---      ---       #255
      ---         BLOCKEND  ---      ---       LVL=0

      ---         MODULE    ---      ---       SC_IT
      0200001DH   PUBLIC    XDATA    BYTE      head1080usflag
LX51 LINKER/LOCATER V4.66.97.0                                                        09/08/2023  13:28:22  PAGE 21


      0200001CH   PUBLIC    XDATA    BYTE      headcountflag
      0200001BH   PUBLIC    XDATA    BYTE      head705flag
      02000019H   PUBLIC    XDATA    WORD      headcount
      02000018H   PUBLIC    XDATA    BYTE      after720usflag
      02000017H   PUBLIC    XDATA    BYTE      start_receiveflag
      02000016H   PUBLIC    XDATA    BYTE      itcount
      02000015H   PUBLIC    XDATA    BYTE      sendendflag
      01000937H   PUBLIC    CODE     ---       LPDInterrupt
      01000936H   PUBLIC    CODE     ---       USCI5Interrupt
      01000935H   PUBLIC    CODE     ---       USCI4Interrupt
      01000934H   PUBLIC    CODE     ---       USCI3Interrupt
      01000933H   PUBLIC    CODE     ---       USCI2Interrupt
      01000932H   PUBLIC    CODE     ---       USCI1Interrupt
      01000931H   PUBLIC    CODE     ---       Timer4Interrupt
      01000930H   PUBLIC    CODE     ---       Timer3Interrupt
      0100092FH   PUBLIC    CODE     ---       ACMPInterrupt
      0100092EH   PUBLIC    CODE     ---       INT2Interrupt
      0100092DH   PUBLIC    CODE     ---       BTMInterrupt
      0100092CH   PUBLIC    CODE     ---       PWMInterrupt
      0100087EH   PUBLIC    CODE     ---       USCI0Interrupt
      0100087DH   PUBLIC    CODE     ---       ADCInterrupt
      0100087CH   PUBLIC    CODE     ---       Timer2Interrupt
      0100087BH   PUBLIC    CODE     ---       UART0Interrupt
      0100087AH   PUBLIC    CODE     ---       Timer1Interrupt
      01000851H   PUBLIC    CODE     ---       INT1Interrupt
      010007E1H   PUBLIC    CODE     ---       Timer0Interrupt
      010007DDH   PUBLIC    CODE     ---       INT0Interrupt
      000000C8H.2 SFRSYM    DATA     BIT       TRX
      000000FFH   SFRSYM    DATA     BYTE      OPREG
      00000080H   SFRSYM    DATA     BYTE      P0
      00000090H   SFRSYM    DATA     BYTE      P1
      000000A0H   SFRSYM    DATA     BYTE      P2
      000000A8H.4 SFRSYM    DATA     BIT       EUART
      0000008EH   SFRSYM    DATA     BYTE      TMCON
      000000B0H   SFRSYM    DATA     BYTE      P3
      000000D0H.6 SFRSYM    DATA     BIT       AC
      000000C0H   SFRSYM    DATA     BYTE      P4
      0000008FH   SFRSYM    DATA     BYTE      OTCON
      000000D8H   SFRSYM    DATA     BYTE      P5
      000000A8H.7 SFRSYM    DATA     BIT       EA
      000000C8H.5 SFRSYM    DATA     BIT       RCLKX
      000000D2H   SFRSYM    DATA     BYTE      PWMCON0
      000000C8H.4 SFRSYM    DATA     BIT       TCLKX
      000000D3H   SFRSYM    DATA     BYTE      PWMCON1
      000000C8H.3 SFRSYM    DATA     BIT       EXENX
      000000A8H.6 SFRSYM    DATA     BIT       EADC
      000000C9H   SFRSYM    DATA     BYTE      TXMOD
      000000C8H   SFRSYM    DATA     BYTE      TXCON
      000000A8H   SFRSYM    DATA     BYTE      IE
      00000085H   SFRSYM    DATA     BYTE      DPH1
      000000E9H   SFRSYM    DATA     BYTE      EXA0
      000000FEH   SFRSYM    DATA     BYTE      OPINX
      000000EAH   SFRSYM    DATA     BYTE      EXA1
      000000EBH   SFRSYM    DATA     BYTE      EXA2
      000000ECH   SFRSYM    DATA     BYTE      EXA3
      00000084H   SFRSYM    DATA     BYTE      DPL1
      000000C8H.0 SFRSYM    DATA     BIT       CP
      000000C4H   SFRSYM    DATA     BYTE      USXCON0
      000000C5H   SFRSYM    DATA     BYTE      USXCON1
      000000C6H   SFRSYM    DATA     BYTE      USXCON2
      000000C7H   SFRSYM    DATA     BYTE      USXCON3
      000000EFH   SFRSYM    DATA     BYTE      OPERCON
      0000009BH   SFRSYM    DATA     BYTE      P0PH
      000000B8H   SFRSYM    DATA     BYTE      IP
      00000092H   SFRSYM    DATA     BYTE      P1PH
LX51 LINKER/LOCATER V4.66.97.0                                                        09/08/2023  13:28:22  PAGE 22


      00000098H.0 SFRSYM    DATA     BIT       RI
      000000A2H   SFRSYM    DATA     BYTE      P2PH
      000000D0H.7 SFRSYM    DATA     BIT       CY
      000000B2H   SFRSYM    DATA     BYTE      P3PH
      00000098H.1 SFRSYM    DATA     BIT       TI
      000000CEH   SFRSYM    DATA     BYTE      TXINX
      000000C2H   SFRSYM    DATA     BYTE      P4PH
      000000B8H.1 SFRSYM    DATA     BIT       IPT0
      000000DAH   SFRSYM    DATA     BYTE      P5PH
      000000B8H.3 SFRSYM    DATA     BIT       IPT1
      000000B8H.5 SFRSYM    DATA     BIT       IPT2
      00000081H   SFRSYM    DATA     BYTE      SP
      000000D0H.2 SFRSYM    DATA     BIT       OV
      000000F4H   SFRSYM    DATA     BYTE      IAPADE
      0000009CH   SFRSYM    DATA     BYTE      P0VO
      00000094H   SFRSYM    DATA     BYTE      P1VO
      000000A3H   SFRSYM    DATA     BYTE      P2VO
      000000EEH   SFRSYM    DATA     BYTE      EXBH
      000000F3H   SFRSYM    DATA     BYTE      IAPADH
      000000B3H   SFRSYM    DATA     BYTE      P3VO
      000000ADH   SFRSYM    DATA     BYTE      ADCCON
      000000C8H.1 SFRSYM    DATA     BIT       TX
      000000EDH   SFRSYM    DATA     BYTE      EXBL
      000000F2H   SFRSYM    DATA     BYTE      IAPADL
      00000080H.0 SFRSYM    DATA     BIT       P00
      00000090H.0 SFRSYM    DATA     BIT       P10
      00000080H.1 SFRSYM    DATA     BIT       P01
      00000099H   SFRSYM    DATA     BYTE      SBUF
      00000087H   SFRSYM    DATA     BYTE      PCON
      000000A0H.0 SFRSYM    DATA     BIT       P20
      00000090H.1 SFRSYM    DATA     BIT       P11
      00000080H.2 SFRSYM    DATA     BIT       P02
      000000B6H   SFRSYM    DATA     BYTE      CMPCFG
      000000B0H.0 SFRSYM    DATA     BIT       P30
      000000A0H.1 SFRSYM    DATA     BIT       P21
      00000090H.2 SFRSYM    DATA     BIT       P12
      00000080H.3 SFRSYM    DATA     BIT       P03
      000000C0H.0 SFRSYM    DATA     BIT       P40
      000000B0H.1 SFRSYM    DATA     BIT       P31
      000000A0H.2 SFRSYM    DATA     BIT       P22
      00000090H.3 SFRSYM    DATA     BIT       P13
      00000080H.4 SFRSYM    DATA     BIT       P04
      00000098H   SFRSYM    DATA     BYTE      SCON
      000000D8H.0 SFRSYM    DATA     BIT       P50
      000000C0H.1 SFRSYM    DATA     BIT       P41
      000000B0H.2 SFRSYM    DATA     BIT       P32
      000000A0H.3 SFRSYM    DATA     BIT       P23
      00000090H.4 SFRSYM    DATA     BIT       P14
      00000080H.5 SFRSYM    DATA     BIT       P05
      000000F5H   SFRSYM    DATA     BYTE      IAPDAT
      00000089H   SFRSYM    DATA     BYTE      TMOD
      00000088H   SFRSYM    DATA     BYTE      TCON
      000000D8H.1 SFRSYM    DATA     BIT       P51
      000000C0H.2 SFRSYM    DATA     BIT       P42
      000000B0H.3 SFRSYM    DATA     BIT       P33
      000000A0H.4 SFRSYM    DATA     BIT       P24
      00000090H.5 SFRSYM    DATA     BIT       P15
      00000080H.6 SFRSYM    DATA     BIT       P06
      000000B8H.0 SFRSYM    DATA     BIT       IPINT0
      000000D8H.2 SFRSYM    DATA     BIT       P52
      000000C0H.3 SFRSYM    DATA     BIT       P43
      000000B0H.4 SFRSYM    DATA     BIT       P34
      000000A0H.5 SFRSYM    DATA     BIT       P25
      00000090H.6 SFRSYM    DATA     BIT       P16
      00000080H.7 SFRSYM    DATA     BIT       P07
LX51 LINKER/LOCATER V4.66.97.0                                                        09/08/2023  13:28:22  PAGE 23


      000000B8H.2 SFRSYM    DATA     BIT       IPINT1
      000000D8H.3 SFRSYM    DATA     BIT       P53
      000000C0H.4 SFRSYM    DATA     BIT       P44
      000000B0H.5 SFRSYM    DATA     BIT       P35
      000000A0H.6 SFRSYM    DATA     BIT       P26
      00000090H.7 SFRSYM    DATA     BIT       P17
      000000FDH   SFRSYM    DATA     BYTE      CRCREG
      000000D8H.4 SFRSYM    DATA     BIT       P54
      000000C0H.5 SFRSYM    DATA     BIT       P45
      000000B0H.6 SFRSYM    DATA     BIT       P36
      000000A0H.7 SFRSYM    DATA     BIT       P27
      000000D8H.5 SFRSYM    DATA     BIT       P55
      000000C0H.6 SFRSYM    DATA     BIT       P46
      000000B0H.7 SFRSYM    DATA     BIT       P37
      000000C0H.7 SFRSYM    DATA     BIT       P47
      000000C8H.6 SFRSYM    DATA     BIT       EXFX
      00000093H   SFRSYM    DATA     BYTE      DDRCON
      000000F6H   SFRSYM    DATA     BYTE      IAPCTL
      000000A9H   SFRSYM    DATA     BYTE      IE1
      000000AAH   SFRSYM    DATA     BYTE      IE2
      000000F0H   SFRSYM    DATA     BYTE      B
      000000B7H   SFRSYM    DATA     BYTE      CMPCON
      000000F1H   SFRSYM    DATA     BYTE      IAPKEY
      000000FBH   SFRSYM    DATA     BYTE      BTMCON
      000000D1H   SFRSYM    DATA     BYTE      PWMCFG
      000000E0H   SFRSYM    DATA     BYTE      ACC
      000000CBH   SFRSYM    DATA     BYTE      RCAPXH
      000000A8H.1 SFRSYM    DATA     BIT       ET0
      000000FCH   SFRSYM    DATA     BYTE      CRCINX
      00000088H.5 SFRSYM    DATA     BIT       TF0
      000000A8H.3 SFRSYM    DATA     BIT       ET1
      000000ABH   SFRSYM    DATA     BYTE      ADCCFG0
      000000B9H   SFRSYM    DATA     BYTE      IP1
      00000088H.7 SFRSYM    DATA     BIT       TF1
      000000A8H.5 SFRSYM    DATA     BIT       ET2
      000000ACH   SFRSYM    DATA     BYTE      ADCCFG1
      000000BAH   SFRSYM    DATA     BYTE      IP2
      000000DFH   SFRSYM    DATA     BYTE      ROMBNK
      00000098H.2 SFRSYM    DATA     BIT       RB8
      000000B5H   SFRSYM    DATA     BYTE      ADCCFG2
      000000CAH   SFRSYM    DATA     BYTE      RCAPXL
      0000008CH   SFRSYM    DATA     BYTE      TH0
      0000008DH   SFRSYM    DATA     BYTE      TH1
      00000098H.3 SFRSYM    DATA     BIT       TB8
      000000D0H.0 SFRSYM    DATA     BIT       P
      00000098H.7 SFRSYM    DATA     BIT       SM0
      0000008AH   SFRSYM    DATA     BYTE      TL0
      00000098H.6 SFRSYM    DATA     BIT       SM1
      000000CFH   SFRSYM    DATA     BYTE      WDTCON
      0000008BH   SFRSYM    DATA     BYTE      TL1
      00000098H.5 SFRSYM    DATA     BIT       SM2
      000000D6H   SFRSYM    DATA     BYTE      PWMDFR
      000000D5H   SFRSYM    DATA     BYTE      PWMPDH
      000000D0H.3 SFRSYM    DATA     BIT       RS0
      00000088H.4 SFRSYM    DATA     BIT       TR0
      000000D0H.4 SFRSYM    DATA     BIT       RS1
      000000D4H   SFRSYM    DATA     BYTE      PWMPDL
      00000088H.6 SFRSYM    DATA     BIT       TR1
      000000B8H.4 SFRSYM    DATA     BIT       IPUART
      000000D7H   SFRSYM    DATA     BYTE      PWMFLT
      00000083H   SFRSYM    DATA     BYTE      DPH
      00000082H   SFRSYM    DATA     BYTE      DPL
      000000A8H.0 SFRSYM    DATA     BIT       EINT0
      0000009AH   SFRSYM    DATA     BYTE      P0CON
      000000A8H.2 SFRSYM    DATA     BIT       EINT1
LX51 LINKER/LOCATER V4.66.97.0                                                        09/08/2023  13:28:22  PAGE 24


      000000B8H.6 SFRSYM    DATA     BIT       IPADC
      000000B4H   SFRSYM    DATA     BYTE      INT0F
      00000091H   SFRSYM    DATA     BYTE      P1CON
      000000BCH   SFRSYM    DATA     BYTE      INT1F
      000000A1H   SFRSYM    DATA     BYTE      P2CON
      000000BEH   SFRSYM    DATA     BYTE      INT2F
      000000B1H   SFRSYM    DATA     BYTE      P3CON
      00000098H.4 SFRSYM    DATA     BIT       REN
      000000C1H   SFRSYM    DATA     BYTE      P4CON
      000000D9H   SFRSYM    DATA     BYTE      P5CON
      000000AFH   SFRSYM    DATA     BYTE      ADCVH
      00000086H   SFRSYM    DATA     BYTE      DPS
      00000095H   SFRSYM    DATA     BYTE      US0CON0
      000000A4H   SFRSYM    DATA     BYTE      US1CON0
      0000009DH   SFRSYM    DATA     BYTE      US0CON1
      000000AEH   SFRSYM    DATA     BYTE      ADCVL
      000000F7H   SFRSYM    DATA     BYTE      EXADH
      000000A5H   SFRSYM    DATA     BYTE      US1CON1
      0000009EH   SFRSYM    DATA     BYTE      US0CON2
      000000A6H   SFRSYM    DATA     BYTE      US1CON2
      0000009FH   SFRSYM    DATA     BYTE      US0CON3
      000000A7H   SFRSYM    DATA     BYTE      US1CON3
      000000BBH   SFRSYM    DATA     BYTE      INT0R
      000000BDH   SFRSYM    DATA     BYTE      INT1R
      000000BFH   SFRSYM    DATA     BYTE      INT2R
      000000DCH   SFRSYM    DATA     BYTE      USXINX
      000000C8H.7 SFRSYM    DATA     BIT       TFX
      00000096H   SFRSYM    DATA     BYTE      IOHCON0
      00000097H   SFRSYM    DATA     BYTE      IOHCON1
      000000CDH   SFRSYM    DATA     BYTE      THX
      000000D0H.5 SFRSYM    DATA     BIT       F0
      000000D0H.1 SFRSYM    DATA     BIT       F1
      000000CCH   SFRSYM    DATA     BYTE      TLX
      000000D0H   SFRSYM    DATA     BYTE      PSW

      010007DDH   BLOCK     CODE     ---       LVL=0
      010007DDH   LINE      ---      ---       #25
      010007DDH   LINE      ---      ---       #27
      010007E0H   LINE      ---      ---       #34
      ---         BLOCKEND  ---      ---       LVL=0

      010007E1H   BLOCK     CODE     ---       LVL=0
      010007F0H   LINE      ---      ---       #42
      010007F0H   LINE      ---      ---       #48
      010007F6H   LINE      ---      ---       #49
      010007F6H   LINE      ---      ---       #50
      010007FCH   LINE      ---      ---       #51
      010007FCH   LINE      ---      ---       #52
      01000807H   LINE      ---      ---       #54
      01000807H   LINE      ---      ---       #55
      0100080DH   LINE      ---      ---       #56
      01000811H   LINE      ---      ---       #59
      01000814H   LINE      ---      ---       #60
      01000819H   LINE      ---      ---       #61
      01000819H   LINE      ---      ---       #62
      0100081BH   LINE      ---      ---       #64
      0100081BH   LINE      ---      ---       #65
      01000825H   LINE      ---      ---       #67
      01000825H   LINE      ---      ---       #70
      0100082BH   LINE      ---      ---       #71
      01000830H   LINE      ---      ---       #72
      01000835H   LINE      ---      ---       #73
      01000835H   LINE      ---      ---       #74
      01000835H   LINE      ---      ---       #75
      01000835H   LINE      ---      ---       #77
LX51 LINKER/LOCATER V4.66.97.0                                                        09/08/2023  13:28:22  PAGE 25


      ---         BLOCKEND  ---      ---       LVL=0

      01000851H   BLOCK     CODE     ---       LVL=0
      01000857H   LINE      ---      ---       #85
      01000857H   LINE      ---      ---       #87
      0100085AH   LINE      ---      ---       #89
      01000860H   LINE      ---      ---       #90
      01000865H   LINE      ---      ---       #91
      01000865H   LINE      ---      ---       #92
      01000868H   LINE      ---      ---       #93
      0100086CH   LINE      ---      ---       #94
      01000873H   LINE      ---      ---       #95
      01000873H   LINE      ---      ---       #97
      ---         BLOCKEND  ---      ---       LVL=0

      0100087AH   BLOCK     CODE     ---       LVL=0
      0100087AH   LINE      ---      ---       #100
      0100087AH   LINE      ---      ---       #108
      ---         BLOCKEND  ---      ---       LVL=0

      0100087BH   BLOCK     CODE     ---       LVL=0
      0100087BH   LINE      ---      ---       #120
      0100087BH   LINE      ---      ---       #128
      ---         BLOCKEND  ---      ---       LVL=0

      0100087CH   BLOCK     CODE     ---       LVL=0
      0100087CH   LINE      ---      ---       #130
      0100087CH   LINE      ---      ---       #138
      ---         BLOCKEND  ---      ---       LVL=0

      0100087DH   BLOCK     CODE     ---       LVL=0
      0100087DH   LINE      ---      ---       #139
      0100087DH   LINE      ---      ---       #147
      ---         BLOCKEND  ---      ---       LVL=0

      0100087EH   BLOCK     CODE     ---       LVL=0
      0100089BH   LINE      ---      ---       #172
      0100089BH   LINE      ---      ---       #179
      010008A2H   LINE      ---      ---       #180
      010008A2H   LINE      ---      ---       #181
      010008A8H   LINE      ---      ---       #182
      010008ABH   LINE      ---      ---       #183
      010008AFH   LINE      ---      ---       #184
      010008AFH   LINE      ---      ---       #186
      ---         BLOCKEND  ---      ---       LVL=0

      0100092CH   BLOCK     CODE     ---       LVL=0
      0100092CH   LINE      ---      ---       #188
      0100092CH   LINE      ---      ---       #196
      ---         BLOCKEND  ---      ---       LVL=0

      0100092DH   BLOCK     CODE     ---       LVL=0
      0100092DH   LINE      ---      ---       #198
      0100092DH   LINE      ---      ---       #206
      ---         BLOCKEND  ---      ---       LVL=0

      0100092EH   BLOCK     CODE     ---       LVL=0
      0100092EH   LINE      ---      ---       #208
      0100092EH   LINE      ---      ---       #216
      ---         BLOCKEND  ---      ---       LVL=0

      0100092FH   BLOCK     CODE     ---       LVL=0
      0100092FH   LINE      ---      ---       #217
      0100092FH   LINE      ---      ---       #225
      ---         BLOCKEND  ---      ---       LVL=0
LX51 LINKER/LOCATER V4.66.97.0                                                        09/08/2023  13:28:22  PAGE 26



      01000930H   BLOCK     CODE     ---       LVL=0
      01000930H   LINE      ---      ---       #226
      01000930H   LINE      ---      ---       #234
      ---         BLOCKEND  ---      ---       LVL=0

      01000931H   BLOCK     CODE     ---       LVL=0
      01000931H   LINE      ---      ---       #235
      01000931H   LINE      ---      ---       #243
      ---         BLOCKEND  ---      ---       LVL=0

      01000932H   BLOCK     CODE     ---       LVL=0
      01000932H   LINE      ---      ---       #244
      01000932H   LINE      ---      ---       #252
      ---         BLOCKEND  ---      ---       LVL=0

      01000933H   BLOCK     CODE     ---       LVL=0
      01000933H   LINE      ---      ---       #253
      01000933H   LINE      ---      ---       #261
      ---         BLOCKEND  ---      ---       LVL=0

      01000934H   BLOCK     CODE     ---       LVL=0
      01000934H   LINE      ---      ---       #262
      01000934H   LINE      ---      ---       #270
      ---         BLOCKEND  ---      ---       LVL=0

      01000935H   BLOCK     CODE     ---       LVL=0
      01000935H   LINE      ---      ---       #271
      01000935H   LINE      ---      ---       #279
      ---         BLOCKEND  ---      ---       LVL=0

      01000936H   BLOCK     CODE     ---       LVL=0
      01000936H   LINE      ---      ---       #280
      01000936H   LINE      ---      ---       #288
      ---         BLOCKEND  ---      ---       LVL=0

      01000937H   BLOCK     CODE     ---       LVL=0
      01000937H   LINE      ---      ---       #289
      01000937H   LINE      ---      ---       #297
      ---         BLOCKEND  ---      ---       LVL=0

      ---         MODULE    ---      ---       SYSFUNVARDEFINE
      000000C8H.2 SFRSYM    DATA     BIT       TRX
      000000FFH   SFRSYM    DATA     BYTE      OPREG
      00000080H   SFRSYM    DATA     BYTE      P0
      00000090H   SFRSYM    DATA     BYTE      P1
      000000A0H   SFRSYM    DATA     BYTE      P2
      000000A8H.4 SFRSYM    DATA     BIT       EUART
      0000008EH   SFRSYM    DATA     BYTE      TMCON
      000000B0H   SFRSYM    DATA     BYTE      P3
      000000D0H.6 SFRSYM    DATA     BIT       AC
      000000C0H   SFRSYM    DATA     BYTE      P4
      0000008FH   SFRSYM    DATA     BYTE      OTCON
      000000D8H   SFRSYM    DATA     BYTE      P5
      000000A8H.7 SFRSYM    DATA     BIT       EA
      000000C8H.5 SFRSYM    DATA     BIT       RCLKX
      000000D2H   SFRSYM    DATA     BYTE      PWMCON0
      000000C8H.4 SFRSYM    DATA     BIT       TCLKX
      000000D3H   SFRSYM    DATA     BYTE      PWMCON1
      000000C8H.3 SFRSYM    DATA     BIT       EXENX
      000000A8H.6 SFRSYM    DATA     BIT       EADC
      000000C9H   SFRSYM    DATA     BYTE      TXMOD
      000000C8H   SFRSYM    DATA     BYTE      TXCON
      000000A8H   SFRSYM    DATA     BYTE      IE
      00000085H   SFRSYM    DATA     BYTE      DPH1
LX51 LINKER/LOCATER V4.66.97.0                                                        09/08/2023  13:28:22  PAGE 27


      000000E9H   SFRSYM    DATA     BYTE      EXA0
      000000FEH   SFRSYM    DATA     BYTE      OPINX
      000000EAH   SFRSYM    DATA     BYTE      EXA1
      000000EBH   SFRSYM    DATA     BYTE      EXA2
      000000ECH   SFRSYM    DATA     BYTE      EXA3
      00000084H   SFRSYM    DATA     BYTE      DPL1
      000000C8H.0 SFRSYM    DATA     BIT       CP
      000000C4H   SFRSYM    DATA     BYTE      USXCON0
      000000C5H   SFRSYM    DATA     BYTE      USXCON1
      000000C6H   SFRSYM    DATA     BYTE      USXCON2
      000000C7H   SFRSYM    DATA     BYTE      USXCON3
      000000EFH   SFRSYM    DATA     BYTE      OPERCON
      0000009BH   SFRSYM    DATA     BYTE      P0PH
      000000B8H   SFRSYM    DATA     BYTE      IP
      00000092H   SFRSYM    DATA     BYTE      P1PH
      00000098H.0 SFRSYM    DATA     BIT       RI
      000000A2H   SFRSYM    DATA     BYTE      P2PH
      000000D0H.7 SFRSYM    DATA     BIT       CY
      000000B2H   SFRSYM    DATA     BYTE      P3PH
      00000098H.1 SFRSYM    DATA     BIT       TI
      000000CEH   SFRSYM    DATA     BYTE      TXINX
      000000C2H   SFRSYM    DATA     BYTE      P4PH
      000000B8H.1 SFRSYM    DATA     BIT       IPT0
      000000DAH   SFRSYM    DATA     BYTE      P5PH
      000000B8H.3 SFRSYM    DATA     BIT       IPT1
      000000B8H.5 SFRSYM    DATA     BIT       IPT2
      00000081H   SFRSYM    DATA     BYTE      SP
      000000D0H.2 SFRSYM    DATA     BIT       OV
      000000F4H   SFRSYM    DATA     BYTE      IAPADE
      0000009CH   SFRSYM    DATA     BYTE      P0VO
      00000094H   SFRSYM    DATA     BYTE      P1VO
      000000A3H   SFRSYM    DATA     BYTE      P2VO
      000000EEH   SFRSYM    DATA     BYTE      EXBH
      000000F3H   SFRSYM    DATA     BYTE      IAPADH
      000000B3H   SFRSYM    DATA     BYTE      P3VO
      000000ADH   SFRSYM    DATA     BYTE      ADCCON
      000000C8H.1 SFRSYM    DATA     BIT       TX
      000000EDH   SFRSYM    DATA     BYTE      EXBL
      000000F2H   SFRSYM    DATA     BYTE      IAPADL
      00000080H.0 SFRSYM    DATA     BIT       P00
      00000090H.0 SFRSYM    DATA     BIT       P10
      00000080H.1 SFRSYM    DATA     BIT       P01
      00000099H   SFRSYM    DATA     BYTE      SBUF
      00000087H   SFRSYM    DATA     BYTE      PCON
      000000A0H.0 SFRSYM    DATA     BIT       P20
      00000090H.1 SFRSYM    DATA     BIT       P11
      00000080H.2 SFRSYM    DATA     BIT       P02
      000000B6H   SFRSYM    DATA     BYTE      CMPCFG
      000000B0H.0 SFRSYM    DATA     BIT       P30
      000000A0H.1 SFRSYM    DATA     BIT       P21
      00000090H.2 SFRSYM    DATA     BIT       P12
      00000080H.3 SFRSYM    DATA     BIT       P03
      000000C0H.0 SFRSYM    DATA     BIT       P40
      000000B0H.1 SFRSYM    DATA     BIT       P31
      000000A0H.2 SFRSYM    DATA     BIT       P22
      00000090H.3 SFRSYM    DATA     BIT       P13
      00000080H.4 SFRSYM    DATA     BIT       P04
      00000098H   SFRSYM    DATA     BYTE      SCON
      000000D8H.0 SFRSYM    DATA     BIT       P50
      000000C0H.1 SFRSYM    DATA     BIT       P41
      000000B0H.2 SFRSYM    DATA     BIT       P32
      000000A0H.3 SFRSYM    DATA     BIT       P23
      00000090H.4 SFRSYM    DATA     BIT       P14
      00000080H.5 SFRSYM    DATA     BIT       P05
      000000F5H   SFRSYM    DATA     BYTE      IAPDAT
LX51 LINKER/LOCATER V4.66.97.0                                                        09/08/2023  13:28:22  PAGE 28


      00000089H   SFRSYM    DATA     BYTE      TMOD
      00000088H   SFRSYM    DATA     BYTE      TCON
      000000D8H.1 SFRSYM    DATA     BIT       P51
      000000C0H.2 SFRSYM    DATA     BIT       P42
      000000B0H.3 SFRSYM    DATA     BIT       P33
      000000A0H.4 SFRSYM    DATA     BIT       P24
      00000090H.5 SFRSYM    DATA     BIT       P15
      00000080H.6 SFRSYM    DATA     BIT       P06
      000000B8H.0 SFRSYM    DATA     BIT       IPINT0
      000000D8H.2 SFRSYM    DATA     BIT       P52
      000000C0H.3 SFRSYM    DATA     BIT       P43
      000000B0H.4 SFRSYM    DATA     BIT       P34
      000000A0H.5 SFRSYM    DATA     BIT       P25
      00000090H.6 SFRSYM    DATA     BIT       P16
      00000080H.7 SFRSYM    DATA     BIT       P07
      000000B8H.2 SFRSYM    DATA     BIT       IPINT1
      000000D8H.3 SFRSYM    DATA     BIT       P53
      000000C0H.4 SFRSYM    DATA     BIT       P44
      000000B0H.5 SFRSYM    DATA     BIT       P35
      000000A0H.6 SFRSYM    DATA     BIT       P26
      00000090H.7 SFRSYM    DATA     BIT       P17
      000000FDH   SFRSYM    DATA     BYTE      CRCREG
      000000D8H.4 SFRSYM    DATA     BIT       P54
      000000C0H.5 SFRSYM    DATA     BIT       P45
      000000B0H.6 SFRSYM    DATA     BIT       P36
      000000A0H.7 SFRSYM    DATA     BIT       P27
      000000D8H.5 SFRSYM    DATA     BIT       P55
      000000C0H.6 SFRSYM    DATA     BIT       P46
      000000B0H.7 SFRSYM    DATA     BIT       P37
      000000C0H.7 SFRSYM    DATA     BIT       P47
      000000C8H.6 SFRSYM    DATA     BIT       EXFX
      00000093H   SFRSYM    DATA     BYTE      DDRCON
      000000F6H   SFRSYM    DATA     BYTE      IAPCTL
      000000A9H   SFRSYM    DATA     BYTE      IE1
      000000AAH   SFRSYM    DATA     BYTE      IE2
      000000F0H   SFRSYM    DATA     BYTE      B
      000000B7H   SFRSYM    DATA     BYTE      CMPCON
      000000F1H   SFRSYM    DATA     BYTE      IAPKEY
      000000FBH   SFRSYM    DATA     BYTE      BTMCON
      000000D1H   SFRSYM    DATA     BYTE      PWMCFG
      000000E0H   SFRSYM    DATA     BYTE      ACC
      000000CBH   SFRSYM    DATA     BYTE      RCAPXH
      000000A8H.1 SFRSYM    DATA     BIT       ET0
      000000FCH   SFRSYM    DATA     BYTE      CRCINX
      00000088H.5 SFRSYM    DATA     BIT       TF0
      000000A8H.3 SFRSYM    DATA     BIT       ET1
      000000ABH   SFRSYM    DATA     BYTE      ADCCFG0
      000000B9H   SFRSYM    DATA     BYTE      IP1
      00000088H.7 SFRSYM    DATA     BIT       TF1
      000000A8H.5 SFRSYM    DATA     BIT       ET2
      000000ACH   SFRSYM    DATA     BYTE      ADCCFG1
      000000BAH   SFRSYM    DATA     BYTE      IP2
      000000DFH   SFRSYM    DATA     BYTE      ROMBNK
      00000098H.2 SFRSYM    DATA     BIT       RB8
      000000B5H   SFRSYM    DATA     BYTE      ADCCFG2
      000000CAH   SFRSYM    DATA     BYTE      RCAPXL
      0000008CH   SFRSYM    DATA     BYTE      TH0
      0000008DH   SFRSYM    DATA     BYTE      TH1
      00000098H.3 SFRSYM    DATA     BIT       TB8
      000000D0H.0 SFRSYM    DATA     BIT       P
      00000098H.7 SFRSYM    DATA     BIT       SM0
      0000008AH   SFRSYM    DATA     BYTE      TL0
      00000098H.6 SFRSYM    DATA     BIT       SM1
      000000CFH   SFRSYM    DATA     BYTE      WDTCON
      0000008BH   SFRSYM    DATA     BYTE      TL1
LX51 LINKER/LOCATER V4.66.97.0                                                        09/08/2023  13:28:22  PAGE 29


      00000098H.5 SFRSYM    DATA     BIT       SM2
      000000D6H   SFRSYM    DATA     BYTE      PWMDFR
      000000D5H   SFRSYM    DATA     BYTE      PWMPDH
      000000D0H.3 SFRSYM    DATA     BIT       RS0
      00000088H.4 SFRSYM    DATA     BIT       TR0
      000000D0H.4 SFRSYM    DATA     BIT       RS1
      000000D4H   SFRSYM    DATA     BYTE      PWMPDL
      00000088H.6 SFRSYM    DATA     BIT       TR1
      000000B8H.4 SFRSYM    DATA     BIT       IPUART
      000000D7H   SFRSYM    DATA     BYTE      PWMFLT
      00000083H   SFRSYM    DATA     BYTE      DPH
      00000082H   SFRSYM    DATA     BYTE      DPL
      000000A8H.0 SFRSYM    DATA     BIT       EINT0
      0000009AH   SFRSYM    DATA     BYTE      P0CON
      000000A8H.2 SFRSYM    DATA     BIT       EINT1
      000000B8H.6 SFRSYM    DATA     BIT       IPADC
      000000B4H   SFRSYM    DATA     BYTE      INT0F
      00000091H   SFRSYM    DATA     BYTE      P1CON
      000000BCH   SFRSYM    DATA     BYTE      INT1F
      000000A1H   SFRSYM    DATA     BYTE      P2CON
      000000BEH   SFRSYM    DATA     BYTE      INT2F
      000000B1H   SFRSYM    DATA     BYTE      P3CON
      00000098H.4 SFRSYM    DATA     BIT       REN
      000000C1H   SFRSYM    DATA     BYTE      P4CON
      000000D9H   SFRSYM    DATA     BYTE      P5CON
      000000AFH   SFRSYM    DATA     BYTE      ADCVH
      00000086H   SFRSYM    DATA     BYTE      DPS
      00000095H   SFRSYM    DATA     BYTE      US0CON0
      000000A4H   SFRSYM    DATA     BYTE      US1CON0
      0000009DH   SFRSYM    DATA     BYTE      US0CON1
      000000AEH   SFRSYM    DATA     BYTE      ADCVL
      000000F7H   SFRSYM    DATA     BYTE      EXADH
      000000A5H   SFRSYM    DATA     BYTE      US1CON1
      0000009EH   SFRSYM    DATA     BYTE      US0CON2
      000000A6H   SFRSYM    DATA     BYTE      US1CON2
      0000009FH   SFRSYM    DATA     BYTE      US0CON3
      000000A7H   SFRSYM    DATA     BYTE      US1CON3
      000000BBH   SFRSYM    DATA     BYTE      INT0R
      000000BDH   SFRSYM    DATA     BYTE      INT1R
      000000BFH   SFRSYM    DATA     BYTE      INT2R
      000000DCH   SFRSYM    DATA     BYTE      USXINX
      000000C8H.7 SFRSYM    DATA     BIT       TFX
      00000096H   SFRSYM    DATA     BYTE      IOHCON0
      00000097H   SFRSYM    DATA     BYTE      IOHCON1
      000000CDH   SFRSYM    DATA     BYTE      THX
      000000D0H.5 SFRSYM    DATA     BIT       F0
      000000D0H.1 SFRSYM    DATA     BIT       F1
      000000CCH   SFRSYM    DATA     BYTE      TLX
      000000D0H   SFRSYM    DATA     BYTE      PSW

      ---         MODULE    ---      ---       IR
      02000008H   PUBLIC    XDATA    ---       send_buf
      02000005H   PUBLIC    XDATA    ---       send_data
      02000004H   PUBLIC    XDATA    BYTE      receive_bit
      02000000H   PUBLIC    XDATA    ---       receive_buf
      01000396H   PUBLIC    CODE     ---       ir_receive_pocess
      0100062CH   PUBLIC    CODE     ---       ir_receive
      000000C8H.2 SFRSYM    DATA     BIT       TRX
      000000FFH   SFRSYM    DATA     BYTE      OPREG
      00000080H   SFRSYM    DATA     BYTE      P0
      00000090H   SFRSYM    DATA     BYTE      P1
      000000A0H   SFRSYM    DATA     BYTE      P2
      000000A8H.4 SFRSYM    DATA     BIT       EUART
      0000008EH   SFRSYM    DATA     BYTE      TMCON
      000000B0H   SFRSYM    DATA     BYTE      P3
LX51 LINKER/LOCATER V4.66.97.0                                                        09/08/2023  13:28:22  PAGE 30


      000000D0H.6 SFRSYM    DATA     BIT       AC
      000000C0H   SFRSYM    DATA     BYTE      P4
      0000008FH   SFRSYM    DATA     BYTE      OTCON
      000000D8H   SFRSYM    DATA     BYTE      P5
      000000A8H.7 SFRSYM    DATA     BIT       EA
      000000C8H.5 SFRSYM    DATA     BIT       RCLKX
      000000D2H   SFRSYM    DATA     BYTE      PWMCON0
      000000C8H.4 SFRSYM    DATA     BIT       TCLKX
      000000D3H   SFRSYM    DATA     BYTE      PWMCON1
      000000C8H.3 SFRSYM    DATA     BIT       EXENX
      000000A8H.6 SFRSYM    DATA     BIT       EADC
      000000C9H   SFRSYM    DATA     BYTE      TXMOD
      000000C8H   SFRSYM    DATA     BYTE      TXCON
      000000A8H   SFRSYM    DATA     BYTE      IE
      00000085H   SFRSYM    DATA     BYTE      DPH1
      000000E9H   SFRSYM    DATA     BYTE      EXA0
      000000FEH   SFRSYM    DATA     BYTE      OPINX
      000000EAH   SFRSYM    DATA     BYTE      EXA1
      000000EBH   SFRSYM    DATA     BYTE      EXA2
      000000ECH   SFRSYM    DATA     BYTE      EXA3
      00000084H   SFRSYM    DATA     BYTE      DPL1
      000000C8H.0 SFRSYM    DATA     BIT       CP
      000000C4H   SFRSYM    DATA     BYTE      USXCON0
      000000C5H   SFRSYM    DATA     BYTE      USXCON1
      000000C6H   SFRSYM    DATA     BYTE      USXCON2
      000000C7H   SFRSYM    DATA     BYTE      USXCON3
      000000EFH   SFRSYM    DATA     BYTE      OPERCON
      0000009BH   SFRSYM    DATA     BYTE      P0PH
      000000B8H   SFRSYM    DATA     BYTE      IP
      00000092H   SFRSYM    DATA     BYTE      P1PH
      00000098H.0 SFRSYM    DATA     BIT       RI
      000000A2H   SFRSYM    DATA     BYTE      P2PH
      000000D0H.7 SFRSYM    DATA     BIT       CY
      000000B2H   SFRSYM    DATA     BYTE      P3PH
      00000098H.1 SFRSYM    DATA     BIT       TI
      000000CEH   SFRSYM    DATA     BYTE      TXINX
      000000C2H   SFRSYM    DATA     BYTE      P4PH
      000000B8H.1 SFRSYM    DATA     BIT       IPT0
      000000DAH   SFRSYM    DATA     BYTE      P5PH
      000000B8H.3 SFRSYM    DATA     BIT       IPT1
      000000B8H.5 SFRSYM    DATA     BIT       IPT2
      00000081H   SFRSYM    DATA     BYTE      SP
      000000D0H.2 SFRSYM    DATA     BIT       OV
      000000F4H   SFRSYM    DATA     BYTE      IAPADE
      0000009CH   SFRSYM    DATA     BYTE      P0VO
      00000094H   SFRSYM    DATA     BYTE      P1VO
      000000A3H   SFRSYM    DATA     BYTE      P2VO
      000000EEH   SFRSYM    DATA     BYTE      EXBH
      000000F3H   SFRSYM    DATA     BYTE      IAPADH
      000000B3H   SFRSYM    DATA     BYTE      P3VO
      000000ADH   SFRSYM    DATA     BYTE      ADCCON
      000000C8H.1 SFRSYM    DATA     BIT       TX
      000000EDH   SFRSYM    DATA     BYTE      EXBL
      000000F2H   SFRSYM    DATA     BYTE      IAPADL
      00000080H.0 SFRSYM    DATA     BIT       P00
      00000090H.0 SFRSYM    DATA     BIT       P10
      00000080H.1 SFRSYM    DATA     BIT       P01
      00000099H   SFRSYM    DATA     BYTE      SBUF
      00000087H   SFRSYM    DATA     BYTE      PCON
      000000A0H.0 SFRSYM    DATA     BIT       P20
      00000090H.1 SFRSYM    DATA     BIT       P11
      00000080H.2 SFRSYM    DATA     BIT       P02
      000000B6H   SFRSYM    DATA     BYTE      CMPCFG
      000000B0H.0 SFRSYM    DATA     BIT       P30
      000000A0H.1 SFRSYM    DATA     BIT       P21
LX51 LINKER/LOCATER V4.66.97.0                                                        09/08/2023  13:28:22  PAGE 31


      00000090H.2 SFRSYM    DATA     BIT       P12
      00000080H.3 SFRSYM    DATA     BIT       P03
      000000C0H.0 SFRSYM    DATA     BIT       P40
      000000B0H.1 SFRSYM    DATA     BIT       P31
      000000A0H.2 SFRSYM    DATA     BIT       P22
      00000090H.3 SFRSYM    DATA     BIT       P13
      00000080H.4 SFRSYM    DATA     BIT       P04
      00000098H   SFRSYM    DATA     BYTE      SCON
      000000D8H.0 SFRSYM    DATA     BIT       P50
      000000C0H.1 SFRSYM    DATA     BIT       P41
      000000B0H.2 SFRSYM    DATA     BIT       P32
      000000A0H.3 SFRSYM    DATA     BIT       P23
      00000090H.4 SFRSYM    DATA     BIT       P14
      00000080H.5 SFRSYM    DATA     BIT       P05
      000000F5H   SFRSYM    DATA     BYTE      IAPDAT
      00000089H   SFRSYM    DATA     BYTE      TMOD
      00000088H   SFRSYM    DATA     BYTE      TCON
      000000D8H.1 SFRSYM    DATA     BIT       P51
      000000C0H.2 SFRSYM    DATA     BIT       P42
      000000B0H.3 SFRSYM    DATA     BIT       P33
      000000A0H.4 SFRSYM    DATA     BIT       P24
      00000090H.5 SFRSYM    DATA     BIT       P15
      00000080H.6 SFRSYM    DATA     BIT       P06
      000000B8H.0 SFRSYM    DATA     BIT       IPINT0
      000000D8H.2 SFRSYM    DATA     BIT       P52
      000000C0H.3 SFRSYM    DATA     BIT       P43
      000000B0H.4 SFRSYM    DATA     BIT       P34
      000000A0H.5 SFRSYM    DATA     BIT       P25
      00000090H.6 SFRSYM    DATA     BIT       P16
      00000080H.7 SFRSYM    DATA     BIT       P07
      000000B8H.2 SFRSYM    DATA     BIT       IPINT1
      000000D8H.3 SFRSYM    DATA     BIT       P53
      000000C0H.4 SFRSYM    DATA     BIT       P44
      000000B0H.5 SFRSYM    DATA     BIT       P35
      000000A0H.6 SFRSYM    DATA     BIT       P26
      00000090H.7 SFRSYM    DATA     BIT       P17
      000000FDH   SFRSYM    DATA     BYTE      CRCREG
      000000D8H.4 SFRSYM    DATA     BIT       P54
      000000C0H.5 SFRSYM    DATA     BIT       P45
      000000B0H.6 SFRSYM    DATA     BIT       P36
      000000A0H.7 SFRSYM    DATA     BIT       P27
      000000D8H.5 SFRSYM    DATA     BIT       P55
      000000C0H.6 SFRSYM    DATA     BIT       P46
      000000B0H.7 SFRSYM    DATA     BIT       P37
      000000C0H.7 SFRSYM    DATA     BIT       P47
      000000C8H.6 SFRSYM    DATA     BIT       EXFX
      00000093H   SFRSYM    DATA     BYTE      DDRCON
      000000F6H   SFRSYM    DATA     BYTE      IAPCTL
      000000A9H   SFRSYM    DATA     BYTE      IE1
      000000AAH   SFRSYM    DATA     BYTE      IE2
      000000F0H   SFRSYM    DATA     BYTE      B
      000000B7H   SFRSYM    DATA     BYTE      CMPCON
      000000F1H   SFRSYM    DATA     BYTE      IAPKEY
      000000FBH   SFRSYM    DATA     BYTE      BTMCON
      000000D1H   SFRSYM    DATA     BYTE      PWMCFG
      000000E0H   SFRSYM    DATA     BYTE      ACC
      000000CBH   SFRSYM    DATA     BYTE      RCAPXH
      000000A8H.1 SFRSYM    DATA     BIT       ET0
      000000FCH   SFRSYM    DATA     BYTE      CRCINX
      00000088H.5 SFRSYM    DATA     BIT       TF0
      000000A8H.3 SFRSYM    DATA     BIT       ET1
      000000ABH   SFRSYM    DATA     BYTE      ADCCFG0
      000000B9H   SFRSYM    DATA     BYTE      IP1
      00000088H.7 SFRSYM    DATA     BIT       TF1
      000000A8H.5 SFRSYM    DATA     BIT       ET2
LX51 LINKER/LOCATER V4.66.97.0                                                        09/08/2023  13:28:22  PAGE 32


      000000ACH   SFRSYM    DATA     BYTE      ADCCFG1
      000000BAH   SFRSYM    DATA     BYTE      IP2
      000000DFH   SFRSYM    DATA     BYTE      ROMBNK
      00000098H.2 SFRSYM    DATA     BIT       RB8
      000000B5H   SFRSYM    DATA     BYTE      ADCCFG2
      000000CAH   SFRSYM    DATA     BYTE      RCAPXL
      0000008CH   SFRSYM    DATA     BYTE      TH0
      0000008DH   SFRSYM    DATA     BYTE      TH1
      00000098H.3 SFRSYM    DATA     BIT       TB8
      000000D0H.0 SFRSYM    DATA     BIT       P
      00000098H.7 SFRSYM    DATA     BIT       SM0
      0000008AH   SFRSYM    DATA     BYTE      TL0
      00000098H.6 SFRSYM    DATA     BIT       SM1
      000000CFH   SFRSYM    DATA     BYTE      WDTCON
      0000008BH   SFRSYM    DATA     BYTE      TL1
      00000098H.5 SFRSYM    DATA     BIT       SM2
      000000D6H   SFRSYM    DATA     BYTE      PWMDFR
      000000D5H   SFRSYM    DATA     BYTE      PWMPDH
      000000D0H.3 SFRSYM    DATA     BIT       RS0
      00000088H.4 SFRSYM    DATA     BIT       TR0
      000000D0H.4 SFRSYM    DATA     BIT       RS1
      000000D4H   SFRSYM    DATA     BYTE      PWMPDL
      00000088H.6 SFRSYM    DATA     BIT       TR1
      000000B8H.4 SFRSYM    DATA     BIT       IPUART
      000000D7H   SFRSYM    DATA     BYTE      PWMFLT
      00000083H   SFRSYM    DATA     BYTE      DPH
      00000082H   SFRSYM    DATA     BYTE      DPL
      000000A8H.0 SFRSYM    DATA     BIT       EINT0
      0000009AH   SFRSYM    DATA     BYTE      P0CON
      000000A8H.2 SFRSYM    DATA     BIT       EINT1
      000000B8H.6 SFRSYM    DATA     BIT       IPADC
      000000B4H   SFRSYM    DATA     BYTE      INT0F
      00000091H   SFRSYM    DATA     BYTE      P1CON
      000000BCH   SFRSYM    DATA     BYTE      INT1F
      000000A1H   SFRSYM    DATA     BYTE      P2CON
      000000BEH   SFRSYM    DATA     BYTE      INT2F
      000000B1H   SFRSYM    DATA     BYTE      P3CON
      00000098H.4 SFRSYM    DATA     BIT       REN
      000000C1H   SFRSYM    DATA     BYTE      P4CON
      000000D9H   SFRSYM    DATA     BYTE      P5CON
      000000AFH   SFRSYM    DATA     BYTE      ADCVH
      00000086H   SFRSYM    DATA     BYTE      DPS
      00000095H   SFRSYM    DATA     BYTE      US0CON0
      000000A4H   SFRSYM    DATA     BYTE      US1CON0
      0000009DH   SFRSYM    DATA     BYTE      US0CON1
      000000AEH   SFRSYM    DATA     BYTE      ADCVL
      000000F7H   SFRSYM    DATA     BYTE      EXADH
      000000A5H   SFRSYM    DATA     BYTE      US1CON1
      0000009EH   SFRSYM    DATA     BYTE      US0CON2
      000000A6H   SFRSYM    DATA     BYTE      US1CON2
      0000009FH   SFRSYM    DATA     BYTE      US0CON3
      000000A7H   SFRSYM    DATA     BYTE      US1CON3
      000000BBH   SFRSYM    DATA     BYTE      INT0R
      000000BDH   SFRSYM    DATA     BYTE      INT1R
      000000BFH   SFRSYM    DATA     BYTE      INT2R
      000000DCH   SFRSYM    DATA     BYTE      USXINX
      000000C8H.7 SFRSYM    DATA     BIT       TFX
      00000096H   SFRSYM    DATA     BYTE      IOHCON0
      00000097H   SFRSYM    DATA     BYTE      IOHCON1
      000000CDH   SFRSYM    DATA     BYTE      THX
      000000D0H.5 SFRSYM    DATA     BIT       F0
      000000D0H.1 SFRSYM    DATA     BIT       F1
      000000CCH   SFRSYM    DATA     BYTE      TLX
      000000D0H   SFRSYM    DATA     BYTE      PSW

LX51 LINKER/LOCATER V4.66.97.0                                                        09/08/2023  13:28:22  PAGE 33


      0100062CH   BLOCK     CODE     ---       LVL=0
      0100062CH   LINE      ---      ---       #30
      0100062CH   LINE      ---      ---       #31
      0100062CH   BLOCK     CODE     NEAR LAB  LVL=1
      0100062CH   LINE      ---      ---       #34
      01000634H   LINE      ---      ---       #35
      01000642H   LINE      ---      ---       #38
      01000648H   LINE      ---      ---       #39
      01000648H   LINE      ---      ---       #40
      0100064DH   LINE      ---      ---       #41
      0100064FH   LINE      ---      ---       #43
      0100064FH   LINE      ---      ---       #44
      00000003H   SYMBOL    DATA     BYTE      receive_data
      ---         BLOCKEND  CODE     ---       LVL=1
      ---         BLOCKEND  CODE     ---       LVL=0

      01000396H   BLOCK     CODE     ---       LVL=0
      01000396H   LINE      ---      ---       #97
      01000396H   LINE      ---      ---       #98
      01000396H   BLOCK     CODE     NEAR LAB  LVL=1
      01000396H   LINE      ---      ---       #103
      0100039BH   LINE      ---      ---       #104
      0100039FH   LINE      ---      ---       #106
      010003ACH   LINE      ---      ---       #107
      010003ACH   LINE      ---      ---       #108
      010003AEH   LINE      ---      ---       #109
      010003B4H   LINE      ---      ---       #110
      010003B5H   LINE      ---      ---       #112
      010003B5H   LINE      ---      ---       #113
      010003BAH   LINE      ---      ---       #114
      010003BEH   LINE      ---      ---       #115
      010003C2H   LINE      ---      ---       #116
      010003D1H   LINE      ---      ---       #117
      010003D6H   LINE      ---      ---       #118
      010003E4H   LINE      ---      ---       #119
      010003F2H   LINE      ---      ---       #122
      010003FEH   LINE      ---      ---       #123
      010003FEH   LINE      ---      ---       #124
      01000405H   LINE      ---      ---       #125
      01000405H   LINE      ---      ---       #126
      0100040AH   LINE      ---      ---       #128
      0100040FH   LINE      ---      ---       #129
      0100040FH   LINE      ---      ---       #130
      01000414H   LINE      ---      ---       #131
      01000416H   LINE      ---      ---       #133
      01000416H   LINE      ---      ---       #134
      0100041BH   LINE      ---      ---       #135
      0100041BH   LINE      ---      ---       #136
      01000421H   LINE      ---      ---       #137
      01000424H   LINE      ---      ---       #139
      01000427H   LINE      ---      ---       #142
      01000435H   LINE      ---      ---       #143
      01000435H   LINE      ---      ---       #144
      0100043DH   LINE      ---      ---       #145
      01000443H   LINE      ---      ---       #146
      01000445H   LINE      ---      ---       #147
      0100044DH   LINE      ---      ---       #148
      01000456H   LINE      ---      ---       #149
      01000456H   LINE      ---      ---       #151
      00000004H   SYMBOL    DATA     DWORD     x
      0200000BH   SYMBOL    XDATA    DWORD     y
      0200000FH   SYMBOL    XDATA    DWORD     z
      02000013H   SYMBOL    XDATA    BYTE      i
      00000007H   SYMBOL    DATA     BYTE      w
      00000006H   SYMBOL    DATA     BYTE      v
LX51 LINKER/LOCATER V4.66.97.0                                                        09/08/2023  13:28:22  PAGE 34


      ---         BLOCKEND  CODE     ---       LVL=1
      ---         BLOCKEND  CODE     ---       LVL=0

      ---         MODULE    ---      ---       SC95F_TIMER0
      010006CDH   PUBLIC    CODE     ---       _TIM0_ITConfig
      01000623H   PUBLIC    CODE     ---       _TIM0_Cmd
      010006A6H   PUBLIC    CODE     ---       _TIM0_WorkMode3Config
      0100065BH   PUBLIC    CODE     ---       _TIM0_WorkModeConfig
      010006B0H   PUBLIC    CODE     ---       _TIM0_WorkMode2Config
      01000695H   PUBLIC    CODE     ---       _TIM0_WorkMode1Config
      010006BBH   PUBLIC    CODE     ---       _TIM0_WorkMode0Config
      010006F5H   PUBLIC    CODE     ---       _TIM0_TimeBaseInit
      000000C8H.2 SFRSYM    DATA     BIT       TRX
      000000FFH   SFRSYM    DATA     BYTE      OPREG
      00000080H   SFRSYM    DATA     BYTE      P0
      00000090H   SFRSYM    DATA     BYTE      P1
      000000A0H   SFRSYM    DATA     BYTE      P2
      000000A8H.4 SFRSYM    DATA     BIT       EUART
      0000008EH   SFRSYM    DATA     BYTE      TMCON
      000000B0H   SFRSYM    DATA     BYTE      P3
      000000D0H.6 SFRSYM    DATA     BIT       AC
      000000C0H   SFRSYM    DATA     BYTE      P4
      0000008FH   SFRSYM    DATA     BYTE      OTCON
      000000D8H   SFRSYM    DATA     BYTE      P5
      000000A8H.7 SFRSYM    DATA     BIT       EA
      000000C8H.5 SFRSYM    DATA     BIT       RCLKX
      000000D2H   SFRSYM    DATA     BYTE      PWMCON0
      000000C8H.4 SFRSYM    DATA     BIT       TCLKX
      000000D3H   SFRSYM    DATA     BYTE      PWMCON1
      000000C8H.3 SFRSYM    DATA     BIT       EXENX
      000000A8H.6 SFRSYM    DATA     BIT       EADC
      000000C9H   SFRSYM    DATA     BYTE      TXMOD
      000000C8H   SFRSYM    DATA     BYTE      TXCON
      000000A8H   SFRSYM    DATA     BYTE      IE
      00000085H   SFRSYM    DATA     BYTE      DPH1
      000000E9H   SFRSYM    DATA     BYTE      EXA0
      000000FEH   SFRSYM    DATA     BYTE      OPINX
      000000EAH   SFRSYM    DATA     BYTE      EXA1
      000000EBH   SFRSYM    DATA     BYTE      EXA2
      000000ECH   SFRSYM    DATA     BYTE      EXA3
      00000084H   SFRSYM    DATA     BYTE      DPL1
      000000C8H.0 SFRSYM    DATA     BIT       CP
      000000C4H   SFRSYM    DATA     BYTE      USXCON0
      000000C5H   SFRSYM    DATA     BYTE      USXCON1
      000000C6H   SFRSYM    DATA     BYTE      USXCON2
      000000C7H   SFRSYM    DATA     BYTE      USXCON3
      000000EFH   SFRSYM    DATA     BYTE      OPERCON
      0000009BH   SFRSYM    DATA     BYTE      P0PH
      000000B8H   SFRSYM    DATA     BYTE      IP
      00000092H   SFRSYM    DATA     BYTE      P1PH
      00000098H.0 SFRSYM    DATA     BIT       RI
      000000A2H   SFRSYM    DATA     BYTE      P2PH
      000000D0H.7 SFRSYM    DATA     BIT       CY
      000000B2H   SFRSYM    DATA     BYTE      P3PH
      00000098H.1 SFRSYM    DATA     BIT       TI
      000000CEH   SFRSYM    DATA     BYTE      TXINX
      000000C2H   SFRSYM    DATA     BYTE      P4PH
      000000B8H.1 SFRSYM    DATA     BIT       IPT0
      000000DAH   SFRSYM    DATA     BYTE      P5PH
      000000B8H.3 SFRSYM    DATA     BIT       IPT1
      000000B8H.5 SFRSYM    DATA     BIT       IPT2
      00000081H   SFRSYM    DATA     BYTE      SP
      000000D0H.2 SFRSYM    DATA     BIT       OV
      000000F4H   SFRSYM    DATA     BYTE      IAPADE
      0000009CH   SFRSYM    DATA     BYTE      P0VO
LX51 LINKER/LOCATER V4.66.97.0                                                        09/08/2023  13:28:22  PAGE 35


      00000094H   SFRSYM    DATA     BYTE      P1VO
      000000A3H   SFRSYM    DATA     BYTE      P2VO
      000000EEH   SFRSYM    DATA     BYTE      EXBH
      000000F3H   SFRSYM    DATA     BYTE      IAPADH
      000000B3H   SFRSYM    DATA     BYTE      P3VO
      000000ADH   SFRSYM    DATA     BYTE      ADCCON
      000000C8H.1 SFRSYM    DATA     BIT       TX
      000000EDH   SFRSYM    DATA     BYTE      EXBL
      000000F2H   SFRSYM    DATA     BYTE      IAPADL
      00000080H.0 SFRSYM    DATA     BIT       P00
      00000090H.0 SFRSYM    DATA     BIT       P10
      00000080H.1 SFRSYM    DATA     BIT       P01
      00000099H   SFRSYM    DATA     BYTE      SBUF
      00000087H   SFRSYM    DATA     BYTE      PCON
      000000A0H.0 SFRSYM    DATA     BIT       P20
      00000090H.1 SFRSYM    DATA     BIT       P11
      00000080H.2 SFRSYM    DATA     BIT       P02
      000000B6H   SFRSYM    DATA     BYTE      CMPCFG
      000000B0H.0 SFRSYM    DATA     BIT       P30
      000000A0H.1 SFRSYM    DATA     BIT       P21
      00000090H.2 SFRSYM    DATA     BIT       P12
      00000080H.3 SFRSYM    DATA     BIT       P03
      000000C0H.0 SFRSYM    DATA     BIT       P40
      000000B0H.1 SFRSYM    DATA     BIT       P31
      000000A0H.2 SFRSYM    DATA     BIT       P22
      00000090H.3 SFRSYM    DATA     BIT       P13
      00000080H.4 SFRSYM    DATA     BIT       P04
      00000098H   SFRSYM    DATA     BYTE      SCON
      000000D8H.0 SFRSYM    DATA     BIT       P50
      000000C0H.1 SFRSYM    DATA     BIT       P41
      000000B0H.2 SFRSYM    DATA     BIT       P32
      000000A0H.3 SFRSYM    DATA     BIT       P23
      00000090H.4 SFRSYM    DATA     BIT       P14
      00000080H.5 SFRSYM    DATA     BIT       P05
      000000F5H   SFRSYM    DATA     BYTE      IAPDAT
      00000089H   SFRSYM    DATA     BYTE      TMOD
      00000088H   SFRSYM    DATA     BYTE      TCON
      000000D8H.1 SFRSYM    DATA     BIT       P51
      000000C0H.2 SFRSYM    DATA     BIT       P42
      000000B0H.3 SFRSYM    DATA     BIT       P33
      000000A0H.4 SFRSYM    DATA     BIT       P24
      00000090H.5 SFRSYM    DATA     BIT       P15
      00000080H.6 SFRSYM    DATA     BIT       P06
      000000B8H.0 SFRSYM    DATA     BIT       IPINT0
      000000D8H.2 SFRSYM    DATA     BIT       P52
      000000C0H.3 SFRSYM    DATA     BIT       P43
      000000B0H.4 SFRSYM    DATA     BIT       P34
      000000A0H.5 SFRSYM    DATA     BIT       P25
      00000090H.6 SFRSYM    DATA     BIT       P16
      00000080H.7 SFRSYM    DATA     BIT       P07
      000000B8H.2 SFRSYM    DATA     BIT       IPINT1
      000000D8H.3 SFRSYM    DATA     BIT       P53
      000000C0H.4 SFRSYM    DATA     BIT       P44
      000000B0H.5 SFRSYM    DATA     BIT       P35
      000000A0H.6 SFRSYM    DATA     BIT       P26
      00000090H.7 SFRSYM    DATA     BIT       P17
      000000FDH   SFRSYM    DATA     BYTE      CRCREG
      000000D8H.4 SFRSYM    DATA     BIT       P54
      000000C0H.5 SFRSYM    DATA     BIT       P45
      000000B0H.6 SFRSYM    DATA     BIT       P36
      000000A0H.7 SFRSYM    DATA     BIT       P27
      000000D8H.5 SFRSYM    DATA     BIT       P55
      000000C0H.6 SFRSYM    DATA     BIT       P46
      000000B0H.7 SFRSYM    DATA     BIT       P37
      000000C0H.7 SFRSYM    DATA     BIT       P47
LX51 LINKER/LOCATER V4.66.97.0                                                        09/08/2023  13:28:22  PAGE 36


      000000C8H.6 SFRSYM    DATA     BIT       EXFX
      00000093H   SFRSYM    DATA     BYTE      DDRCON
      000000F6H   SFRSYM    DATA     BYTE      IAPCTL
      000000A9H   SFRSYM    DATA     BYTE      IE1
      000000AAH   SFRSYM    DATA     BYTE      IE2
      000000F0H   SFRSYM    DATA     BYTE      B
      000000B7H   SFRSYM    DATA     BYTE      CMPCON
      000000F1H   SFRSYM    DATA     BYTE      IAPKEY
      000000FBH   SFRSYM    DATA     BYTE      BTMCON
      000000D1H   SFRSYM    DATA     BYTE      PWMCFG
      000000E0H   SFRSYM    DATA     BYTE      ACC
      000000CBH   SFRSYM    DATA     BYTE      RCAPXH
      000000A8H.1 SFRSYM    DATA     BIT       ET0
      000000FCH   SFRSYM    DATA     BYTE      CRCINX
      00000088H.5 SFRSYM    DATA     BIT       TF0
      000000A8H.3 SFRSYM    DATA     BIT       ET1
      000000ABH   SFRSYM    DATA     BYTE      ADCCFG0
      000000B9H   SFRSYM    DATA     BYTE      IP1
      00000088H.7 SFRSYM    DATA     BIT       TF1
      000000A8H.5 SFRSYM    DATA     BIT       ET2
      000000ACH   SFRSYM    DATA     BYTE      ADCCFG1
      000000BAH   SFRSYM    DATA     BYTE      IP2
      000000DFH   SFRSYM    DATA     BYTE      ROMBNK
      00000098H.2 SFRSYM    DATA     BIT       RB8
      000000B5H   SFRSYM    DATA     BYTE      ADCCFG2
      000000CAH   SFRSYM    DATA     BYTE      RCAPXL
      0000008CH   SFRSYM    DATA     BYTE      TH0
      0000008DH   SFRSYM    DATA     BYTE      TH1
      00000098H.3 SFRSYM    DATA     BIT       TB8
      000000D0H.0 SFRSYM    DATA     BIT       P
      00000098H.7 SFRSYM    DATA     BIT       SM0
      0000008AH   SFRSYM    DATA     BYTE      TL0
      00000098H.6 SFRSYM    DATA     BIT       SM1
      000000CFH   SFRSYM    DATA     BYTE      WDTCON
      0000008BH   SFRSYM    DATA     BYTE      TL1
      00000098H.5 SFRSYM    DATA     BIT       SM2
      000000D6H   SFRSYM    DATA     BYTE      PWMDFR
      000000D5H   SFRSYM    DATA     BYTE      PWMPDH
      000000D0H.3 SFRSYM    DATA     BIT       RS0
      00000088H.4 SFRSYM    DATA     BIT       TR0
      000000D0H.4 SFRSYM    DATA     BIT       RS1
      000000D4H   SFRSYM    DATA     BYTE      PWMPDL
      00000088H.6 SFRSYM    DATA     BIT       TR1
      000000B8H.4 SFRSYM    DATA     BIT       IPUART
      000000D7H   SFRSYM    DATA     BYTE      PWMFLT
      00000083H   SFRSYM    DATA     BYTE      DPH
      00000082H   SFRSYM    DATA     BYTE      DPL
      000000A8H.0 SFRSYM    DATA     BIT       EINT0
      0000009AH   SFRSYM    DATA     BYTE      P0CON
      000000A8H.2 SFRSYM    DATA     BIT       EINT1
      000000B8H.6 SFRSYM    DATA     BIT       IPADC
      000000B4H   SFRSYM    DATA     BYTE      INT0F
      00000091H   SFRSYM    DATA     BYTE      P1CON
      000000BCH   SFRSYM    DATA     BYTE      INT1F
      000000A1H   SFRSYM    DATA     BYTE      P2CON
      000000BEH   SFRSYM    DATA     BYTE      INT2F
      000000B1H   SFRSYM    DATA     BYTE      P3CON
      00000098H.4 SFRSYM    DATA     BIT       REN
      000000C1H   SFRSYM    DATA     BYTE      P4CON
      000000D9H   SFRSYM    DATA     BYTE      P5CON
      000000AFH   SFRSYM    DATA     BYTE      ADCVH
      00000086H   SFRSYM    DATA     BYTE      DPS
      00000095H   SFRSYM    DATA     BYTE      US0CON0
      000000A4H   SFRSYM    DATA     BYTE      US1CON0
      0000009DH   SFRSYM    DATA     BYTE      US0CON1
LX51 LINKER/LOCATER V4.66.97.0                                                        09/08/2023  13:28:22  PAGE 37


      000000AEH   SFRSYM    DATA     BYTE      ADCVL
      000000F7H   SFRSYM    DATA     BYTE      EXADH
      000000A5H   SFRSYM    DATA     BYTE      US1CON1
      0000009EH   SFRSYM    DATA     BYTE      US0CON2
      000000A6H   SFRSYM    DATA     BYTE      US1CON2
      0000009FH   SFRSYM    DATA     BYTE      US0CON3
      000000A7H   SFRSYM    DATA     BYTE      US1CON3
      000000BBH   SFRSYM    DATA     BYTE      INT0R
      000000BDH   SFRSYM    DATA     BYTE      INT1R
      000000BFH   SFRSYM    DATA     BYTE      INT2R
      000000DCH   SFRSYM    DATA     BYTE      USXINX
      000000C8H.7 SFRSYM    DATA     BIT       TFX
      00000096H   SFRSYM    DATA     BYTE      IOHCON0
      00000097H   SFRSYM    DATA     BYTE      IOHCON1
      000000CDH   SFRSYM    DATA     BYTE      THX
      000000D0H.5 SFRSYM    DATA     BIT       F0
      000000D0H.1 SFRSYM    DATA     BIT       F1
      000000CCH   SFRSYM    DATA     BYTE      TLX
      000000D0H   SFRSYM    DATA     BYTE      PSW

      010006F5H   BLOCK     CODE     ---       LVL=0
      010006F5H   LINE      ---      ---       #38
      010006F5H   LINE      ---      ---       #40
      010006F5H   LINE      ---      ---       #41
      010006FBH   LINE      ---      ---       #42
      010006FBH   LINE      ---      ---       #43
      010006FEH   LINE      ---      ---       #44
      01000700H   LINE      ---      ---       #45
      01000706H   LINE      ---      ---       #46
      01000706H   LINE      ---      ---       #47
      01000709H   LINE      ---      ---       #48
      01000709H   LINE      ---      ---       #51
      01000711H   LINE      ---      ---       #52
      01000711H   LINE      ---      ---       #53
      01000714H   LINE      ---      ---       #54
      01000715H   LINE      ---      ---       #55
      0100071BH   LINE      ---      ---       #56
      0100071BH   LINE      ---      ---       #57
      0100071EH   LINE      ---      ---       #58
      0100071EH   LINE      ---      ---       #59
      00000007H   SYMBOL    DATA     BYTE      TIM0_PrescalerSelection
      00000005H   SYMBOL    DATA     BYTE      TIM0_CountMode
      ---         BLOCKEND  ---      ---       LVL=0

      010006BBH   BLOCK     CODE     ---       LVL=0
      010006BBH   LINE      ---      ---       #68
      010006BBH   LINE      ---      ---       #69
      010006BBH   LINE      ---      ---       #70
      010006BEH   LINE      ---      ---       #71
      010006C0H   LINE      ---      ---       #72
      010006CCH   LINE      ---      ---       #73
      00000006H   SYMBOL    DATA     WORD      TIM0_SetCounter
      ---         BLOCKEND  ---      ---       LVL=0

      01000695H   BLOCK     CODE     ---       LVL=0
      01000695H   LINE      ---      ---       #82
      01000695H   LINE      ---      ---       #83
      01000695H   LINE      ---      ---       #84
      01000698H   LINE      ---      ---       #85
      00000006H   SYMBOL    DATA     WORD      TIM0_SetCounter
      ---         BLOCKEND  ---      ---       LVL=0

      010006B0H   BLOCK     CODE     ---       LVL=0
      010006B0H   LINE      ---      ---       #97
      010006B0H   LINE      ---      ---       #98
LX51 LINKER/LOCATER V4.66.97.0                                                        09/08/2023  13:28:22  PAGE 38


      010006B0H   LINE      ---      ---       #99
      010006B3H   LINE      ---      ---       #100
      010006B6H   LINE      ---      ---       #101
      010006B8H   LINE      ---      ---       #102
      010006BAH   LINE      ---      ---       #103
      00000007H   SYMBOL    DATA     BYTE      TIM0_SetCounter
      ---         BLOCKEND  ---      ---       LVL=0

      0100065BH   BLOCK     CODE     ---       LVL=0
      0100065BH   LINE      ---      ---       #114
      01000663H   LINE      ---      ---       #116
      01000663H   LINE      ---      ---       #117
      01000671H   LINE      ---      ---       #118
      01000671H   LINE      ---      ---       #119
      01000671H   LINE      ---      ---       #120
      01000675H   LINE      ---      ---       #121
      01000675H   LINE      ---      ---       #123
      01000675H   LINE      ---      ---       #124
      01000679H   LINE      ---      ---       #125
      01000679H   LINE      ---      ---       #127
      01000679H   LINE      ---      ---       #128
      01000681H   LINE      ---      ---       #129
      01000681H   LINE      ---      ---       #131
      01000681H   LINE      ---      ---       #132
      0100068BH   LINE      ---      ---       #133
      0100068BH   LINE      ---      ---       #135
      0100068BH   LINE      ---      ---       #136
      0100068BH   LINE      ---      ---       #137
      0100068BH   LINE      ---      ---       #138
      00000007H   SYMBOL    DATA     BYTE      TIM0_WorkMode
      0200000BH   SYMBOL    XDATA    WORD      TIM0_SetCounter1
      00000002H   SYMBOL    DATA     WORD      TIM0_SetCounter2
      ---         BLOCKEND  ---      ---       LVL=0

      010006A6H   BLOCK     CODE     ---       LVL=0
      010006A6H   LINE      ---      ---       #148
      010006A6H   LINE      ---      ---       #149
      010006A6H   LINE      ---      ---       #150
      010006A9H   LINE      ---      ---       #151
      010006ABH   LINE      ---      ---       #152
      010006AFH   LINE      ---      ---       #153
      00000007H   SYMBOL    DATA     BYTE      TIM0_SetCounter
      00000005H   SYMBOL    DATA     BYTE      TIM1_SetCounter
      ---         BLOCKEND  ---      ---       LVL=0
      00000006H   SYMBOL    DATA     WORD      TIM0_SetCounter
      00000006H   SYMBOL    DATA     WORD      TIM0_SetCounter

      01000623H   BLOCK     CODE     ---       LVL=0
      01000623H   LINE      ---      ---       #188
      01000623H   LINE      ---      ---       #189
      01000623H   LINE      ---      ---       #190
      01000626H   LINE      ---      ---       #191
      01000626H   LINE      ---      ---       #192
      01000628H   LINE      ---      ---       #193
      01000629H   LINE      ---      ---       #195
      01000629H   LINE      ---      ---       #196
      0100062BH   LINE      ---      ---       #197
      0100062BH   LINE      ---      ---       #198
      00000007H   SYMBOL    DATA     BYTE      NewState
      ---         BLOCKEND  ---      ---       LVL=0
      00000007H   SYMBOL    DATA     BYTE      TIM0_SetCounter
      00000007H   SYMBOL    DATA     BYTE      TIM0_SetCounter

      010006CDH   BLOCK     CODE     ---       LVL=0
      010006CDH   LINE      ---      ---       #232
LX51 LINKER/LOCATER V4.66.97.0                                                        09/08/2023  13:28:22  PAGE 39


      010006CDH   LINE      ---      ---       #233
      010006CDH   LINE      ---      ---       #234
      010006D0H   LINE      ---      ---       #235
      010006D0H   LINE      ---      ---       #236
      010006D2H   LINE      ---      ---       #237
      010006D4H   LINE      ---      ---       #239
      010006D4H   LINE      ---      ---       #240
      010006D6H   LINE      ---      ---       #241
      010006D6H   LINE      ---      ---       #244
      010006D9H   LINE      ---      ---       #245
      010006D9H   LINE      ---      ---       #246
      010006DBH   LINE      ---      ---       #247
      010006DCH   LINE      ---      ---       #249
      010006DCH   LINE      ---      ---       #250
      010006DEH   LINE      ---      ---       #251
      010006DEH   LINE      ---      ---       #252
      00000007H   SYMBOL    DATA     BYTE      NewState
      00000005H   SYMBOL    DATA     BYTE      Priority
      ---         BLOCKEND  ---      ---       LVL=0

      ---         MODULE    ---      ---       SC95F_USCI0
      010008CAH   PUBLIC    CODE     ---       _USCI0_ClearFlag
      010008FCH   PUBLIC    CODE     ---       _USCI0_GetFlagStatus
      010006DFH   PUBLIC    CODE     ---       _USCI0_ITConfig
      010006A3H   PUBLIC    CODE     ---       _USCI0_UART_SendData8
      0200000BH   PUBLIC    XDATA    BYTE      ?_USCI0_UART_Init?BYTE
      0100058BH   PUBLIC    CODE     ---       _USCI0_UART_Init
      000000C8H.2 SFRSYM    DATA     BIT       TRX
      000000FFH   SFRSYM    DATA     BYTE      OPREG
      00000080H   SFRSYM    DATA     BYTE      P0
      00000090H   SFRSYM    DATA     BYTE      P1
      000000A0H   SFRSYM    DATA     BYTE      P2
      000000A8H.4 SFRSYM    DATA     BIT       EUART
      0000008EH   SFRSYM    DATA     BYTE      TMCON
      000000B0H   SFRSYM    DATA     BYTE      P3
      000000D0H.6 SFRSYM    DATA     BIT       AC
      000000C0H   SFRSYM    DATA     BYTE      P4
      0000008FH   SFRSYM    DATA     BYTE      OTCON
      000000D8H   SFRSYM    DATA     BYTE      P5
      000000A8H.7 SFRSYM    DATA     BIT       EA
      000000C8H.5 SFRSYM    DATA     BIT       RCLKX
      000000D2H   SFRSYM    DATA     BYTE      PWMCON0
      000000C8H.4 SFRSYM    DATA     BIT       TCLKX
      000000D3H   SFRSYM    DATA     BYTE      PWMCON1
      000000C8H.3 SFRSYM    DATA     BIT       EXENX
      000000A8H.6 SFRSYM    DATA     BIT       EADC
      000000C9H   SFRSYM    DATA     BYTE      TXMOD
      000000C8H   SFRSYM    DATA     BYTE      TXCON
      000000A8H   SFRSYM    DATA     BYTE      IE
      00000085H   SFRSYM    DATA     BYTE      DPH1
      000000E9H   SFRSYM    DATA     BYTE      EXA0
      000000FEH   SFRSYM    DATA     BYTE      OPINX
      000000EAH   SFRSYM    DATA     BYTE      EXA1
      000000EBH   SFRSYM    DATA     BYTE      EXA2
      000000ECH   SFRSYM    DATA     BYTE      EXA3
      00000084H   SFRSYM    DATA     BYTE      DPL1
      000000C8H.0 SFRSYM    DATA     BIT       CP
      000000C4H   SFRSYM    DATA     BYTE      USXCON0
      000000C5H   SFRSYM    DATA     BYTE      USXCON1
      000000C6H   SFRSYM    DATA     BYTE      USXCON2
      000000C7H   SFRSYM    DATA     BYTE      USXCON3
      000000EFH   SFRSYM    DATA     BYTE      OPERCON
      0000009BH   SFRSYM    DATA     BYTE      P0PH
      000000B8H   SFRSYM    DATA     BYTE      IP
      00000092H   SFRSYM    DATA     BYTE      P1PH
LX51 LINKER/LOCATER V4.66.97.0                                                        09/08/2023  13:28:22  PAGE 40


      00000098H.0 SFRSYM    DATA     BIT       RI
      000000A2H   SFRSYM    DATA     BYTE      P2PH
      000000D0H.7 SFRSYM    DATA     BIT       CY
      000000B2H   SFRSYM    DATA     BYTE      P3PH
      00000098H.1 SFRSYM    DATA     BIT       TI
      000000CEH   SFRSYM    DATA     BYTE      TXINX
      000000C2H   SFRSYM    DATA     BYTE      P4PH
      000000B8H.1 SFRSYM    DATA     BIT       IPT0
      000000DAH   SFRSYM    DATA     BYTE      P5PH
      000000B8H.3 SFRSYM    DATA     BIT       IPT1
      000000B8H.5 SFRSYM    DATA     BIT       IPT2
      00000081H   SFRSYM    DATA     BYTE      SP
      000000D0H.2 SFRSYM    DATA     BIT       OV
      000000F4H   SFRSYM    DATA     BYTE      IAPADE
      0000009CH   SFRSYM    DATA     BYTE      P0VO
      00000094H   SFRSYM    DATA     BYTE      P1VO
      000000A3H   SFRSYM    DATA     BYTE      P2VO
      000000EEH   SFRSYM    DATA     BYTE      EXBH
      000000F3H   SFRSYM    DATA     BYTE      IAPADH
      000000B3H   SFRSYM    DATA     BYTE      P3VO
      000000ADH   SFRSYM    DATA     BYTE      ADCCON
      000000C8H.1 SFRSYM    DATA     BIT       TX
      000000EDH   SFRSYM    DATA     BYTE      EXBL
      000000F2H   SFRSYM    DATA     BYTE      IAPADL
      00000080H.0 SFRSYM    DATA     BIT       P00
      00000090H.0 SFRSYM    DATA     BIT       P10
      00000080H.1 SFRSYM    DATA     BIT       P01
      00000099H   SFRSYM    DATA     BYTE      SBUF
      00000087H   SFRSYM    DATA     BYTE      PCON
      000000A0H.0 SFRSYM    DATA     BIT       P20
      00000090H.1 SFRSYM    DATA     BIT       P11
      00000080H.2 SFRSYM    DATA     BIT       P02
      000000B6H   SFRSYM    DATA     BYTE      CMPCFG
      000000B0H.0 SFRSYM    DATA     BIT       P30
      000000A0H.1 SFRSYM    DATA     BIT       P21
      00000090H.2 SFRSYM    DATA     BIT       P12
      00000080H.3 SFRSYM    DATA     BIT       P03
      000000C0H.0 SFRSYM    DATA     BIT       P40
      000000B0H.1 SFRSYM    DATA     BIT       P31
      000000A0H.2 SFRSYM    DATA     BIT       P22
      00000090H.3 SFRSYM    DATA     BIT       P13
      00000080H.4 SFRSYM    DATA     BIT       P04
      00000098H   SFRSYM    DATA     BYTE      SCON
      000000D8H.0 SFRSYM    DATA     BIT       P50
      000000C0H.1 SFRSYM    DATA     BIT       P41
      000000B0H.2 SFRSYM    DATA     BIT       P32
      000000A0H.3 SFRSYM    DATA     BIT       P23
      00000090H.4 SFRSYM    DATA     BIT       P14
      00000080H.5 SFRSYM    DATA     BIT       P05
      000000F5H   SFRSYM    DATA     BYTE      IAPDAT
      00000089H   SFRSYM    DATA     BYTE      TMOD
      00000088H   SFRSYM    DATA     BYTE      TCON
      000000D8H.1 SFRSYM    DATA     BIT       P51
      000000C0H.2 SFRSYM    DATA     BIT       P42
      000000B0H.3 SFRSYM    DATA     BIT       P33
      000000A0H.4 SFRSYM    DATA     BIT       P24
      00000090H.5 SFRSYM    DATA     BIT       P15
      00000080H.6 SFRSYM    DATA     BIT       P06
      000000B8H.0 SFRSYM    DATA     BIT       IPINT0
      000000D8H.2 SFRSYM    DATA     BIT       P52
      000000C0H.3 SFRSYM    DATA     BIT       P43
      000000B0H.4 SFRSYM    DATA     BIT       P34
      000000A0H.5 SFRSYM    DATA     BIT       P25
      00000090H.6 SFRSYM    DATA     BIT       P16
      00000080H.7 SFRSYM    DATA     BIT       P07
LX51 LINKER/LOCATER V4.66.97.0                                                        09/08/2023  13:28:22  PAGE 41


      000000B8H.2 SFRSYM    DATA     BIT       IPINT1
      000000D8H.3 SFRSYM    DATA     BIT       P53
      000000C0H.4 SFRSYM    DATA     BIT       P44
      000000B0H.5 SFRSYM    DATA     BIT       P35
      000000A0H.6 SFRSYM    DATA     BIT       P26
      00000090H.7 SFRSYM    DATA     BIT       P17
      000000FDH   SFRSYM    DATA     BYTE      CRCREG
      000000D8H.4 SFRSYM    DATA     BIT       P54
      000000C0H.5 SFRSYM    DATA     BIT       P45
      000000B0H.6 SFRSYM    DATA     BIT       P36
      000000A0H.7 SFRSYM    DATA     BIT       P27
      000000D8H.5 SFRSYM    DATA     BIT       P55
      000000C0H.6 SFRSYM    DATA     BIT       P46
      000000B0H.7 SFRSYM    DATA     BIT       P37
      000000C0H.7 SFRSYM    DATA     BIT       P47
      000000C8H.6 SFRSYM    DATA     BIT       EXFX
      00000093H   SFRSYM    DATA     BYTE      DDRCON
      000000F6H   SFRSYM    DATA     BYTE      IAPCTL
      000000A9H   SFRSYM    DATA     BYTE      IE1
      000000AAH   SFRSYM    DATA     BYTE      IE2
      000000F0H   SFRSYM    DATA     BYTE      B
      000000B7H   SFRSYM    DATA     BYTE      CMPCON
      000000F1H   SFRSYM    DATA     BYTE      IAPKEY
      000000FBH   SFRSYM    DATA     BYTE      BTMCON
      000000D1H   SFRSYM    DATA     BYTE      PWMCFG
      000000E0H   SFRSYM    DATA     BYTE      ACC
      000000CBH   SFRSYM    DATA     BYTE      RCAPXH
      000000A8H.1 SFRSYM    DATA     BIT       ET0
      000000FCH   SFRSYM    DATA     BYTE      CRCINX
      00000088H.5 SFRSYM    DATA     BIT       TF0
      000000A8H.3 SFRSYM    DATA     BIT       ET1
      000000ABH   SFRSYM    DATA     BYTE      ADCCFG0
      000000B9H   SFRSYM    DATA     BYTE      IP1
      00000088H.7 SFRSYM    DATA     BIT       TF1
      000000A8H.5 SFRSYM    DATA     BIT       ET2
      000000ACH   SFRSYM    DATA     BYTE      ADCCFG1
      000000BAH   SFRSYM    DATA     BYTE      IP2
      000000DFH   SFRSYM    DATA     BYTE      ROMBNK
      00000098H.2 SFRSYM    DATA     BIT       RB8
      000000B5H   SFRSYM    DATA     BYTE      ADCCFG2
      000000CAH   SFRSYM    DATA     BYTE      RCAPXL
      0000008CH   SFRSYM    DATA     BYTE      TH0
      0000008DH   SFRSYM    DATA     BYTE      TH1
      00000098H.3 SFRSYM    DATA     BIT       TB8
      000000D0H.0 SFRSYM    DATA     BIT       P
      00000098H.7 SFRSYM    DATA     BIT       SM0
      0000008AH   SFRSYM    DATA     BYTE      TL0
      00000098H.6 SFRSYM    DATA     BIT       SM1
      000000CFH   SFRSYM    DATA     BYTE      WDTCON
      0000008BH   SFRSYM    DATA     BYTE      TL1
      00000098H.5 SFRSYM    DATA     BIT       SM2
      000000D6H   SFRSYM    DATA     BYTE      PWMDFR
      000000D5H   SFRSYM    DATA     BYTE      PWMPDH
      000000D0H.3 SFRSYM    DATA     BIT       RS0
      00000088H.4 SFRSYM    DATA     BIT       TR0
      000000D0H.4 SFRSYM    DATA     BIT       RS1
      000000D4H   SFRSYM    DATA     BYTE      PWMPDL
      00000088H.6 SFRSYM    DATA     BIT       TR1
      000000B8H.4 SFRSYM    DATA     BIT       IPUART
      000000D7H   SFRSYM    DATA     BYTE      PWMFLT
      00000083H   SFRSYM    DATA     BYTE      DPH
      00000082H   SFRSYM    DATA     BYTE      DPL
      000000A8H.0 SFRSYM    DATA     BIT       EINT0
      0000009AH   SFRSYM    DATA     BYTE      P0CON
      000000A8H.2 SFRSYM    DATA     BIT       EINT1
LX51 LINKER/LOCATER V4.66.97.0                                                        09/08/2023  13:28:22  PAGE 42


      000000B8H.6 SFRSYM    DATA     BIT       IPADC
      000000B4H   SFRSYM    DATA     BYTE      INT0F
      00000091H   SFRSYM    DATA     BYTE      P1CON
      000000BCH   SFRSYM    DATA     BYTE      INT1F
      000000A1H   SFRSYM    DATA     BYTE      P2CON
      000000BEH   SFRSYM    DATA     BYTE      INT2F
      000000B1H   SFRSYM    DATA     BYTE      P3CON
      00000098H.4 SFRSYM    DATA     BIT       REN
      000000C1H   SFRSYM    DATA     BYTE      P4CON
      000000D9H   SFRSYM    DATA     BYTE      P5CON
      000000AFH   SFRSYM    DATA     BYTE      ADCVH
      00000086H   SFRSYM    DATA     BYTE      DPS
      00000095H   SFRSYM    DATA     BYTE      US0CON0
      000000A4H   SFRSYM    DATA     BYTE      US1CON0
      0000009DH   SFRSYM    DATA     BYTE      US0CON1
      000000AEH   SFRSYM    DATA     BYTE      ADCVL
      000000F7H   SFRSYM    DATA     BYTE      EXADH
      000000A5H   SFRSYM    DATA     BYTE      US1CON1
      0000009EH   SFRSYM    DATA     BYTE      US0CON2
      000000A6H   SFRSYM    DATA     BYTE      US1CON2
      0000009FH   SFRSYM    DATA     BYTE      US0CON3
      000000A7H   SFRSYM    DATA     BYTE      US1CON3
      000000BBH   SFRSYM    DATA     BYTE      INT0R
      000000BDH   SFRSYM    DATA     BYTE      INT1R
      000000BFH   SFRSYM    DATA     BYTE      INT2R
      000000DCH   SFRSYM    DATA     BYTE      USXINX
      000000C8H.7 SFRSYM    DATA     BIT       TFX
      00000096H   SFRSYM    DATA     BYTE      IOHCON0
      00000097H   SFRSYM    DATA     BYTE      IOHCON1
      000000CDH   SFRSYM    DATA     BYTE      THX
      000000D0H.5 SFRSYM    DATA     BIT       F0
      000000D0H.1 SFRSYM    DATA     BIT       F1
      000000CCH   SFRSYM    DATA     BYTE      TLX
      000000D0H   SFRSYM    DATA     BYTE      PSW
      00000007H   SYMBOL    DATA     BYTE      FirstBit
      00000005H   SYMBOL    DATA     BYTE      BaudRatePrescaler
      00000003H   SYMBOL    DATA     BYTE      Mode
      00000007H   SYMBOL    DATA     BYTE      TransmissionMode
      00000007H   SYMBOL    DATA     BYTE      NewState
      00000007H   SYMBOL    DATA     BYTE      Data
      00000004H   SYMBOL    DATA     WORD      Data
      00000006H   SYMBOL    DATA     WORD      SPI_data
      00000007H   SYMBOL    DATA     BYTE      TWI_Address
      00000007H   SYMBOL    DATA     BYTE      TWI_MasterCommunicationRate
      00000007H   SYMBOL    DATA     BYTE      NewState
      00000007H   SYMBOL    DATA     BYTE      NewState
      00000007H   SYMBOL    DATA     BYTE      NewState
      00000007H   SYMBOL    DATA     BYTE      USCI0_TWIState
      00000007H   SYMBOL    DATA     BYTE      NewState
      00000007H   SYMBOL    DATA     BYTE      Data

      0100058BH   BLOCK     CODE     ---       LVL=0
      0100058BH   LINE      ---      ---       #334
      01000590H   LINE      ---      ---       #336
      01000590H   LINE      ---      ---       #337
      01000593H   LINE      ---      ---       #338
      010005A4H   LINE      ---      ---       #340
      010005A7H   LINE      ---      ---       #341
      010005A7H   LINE      ---      ---       #342
      010005ACH   LINE      ---      ---       #343
      010005ACH   LINE      ---      ---       #344
      010005AFH   LINE      ---      ---       #345
      010005B0H   LINE      ---      ---       #346
      010005B7H   LINE      ---      ---       #347
      010005B7H   LINE      ---      ---       #348
LX51 LINKER/LOCATER V4.66.97.0                                                        09/08/2023  13:28:22  PAGE 43


      010005BAH   LINE      ---      ---       #349
      010005BAH   LINE      ---      ---       #350
      010005BBH   LINE      ---      ---       #352
      010005BBH   LINE      ---      ---       #353
      010005C7H   LINE      ---      ---       #354
      010005CBH   LINE      ---      ---       #355
      010005CBH   LINE      ---      ---       #356
      0200000BH   SYMBOL    XDATA    DWORD     UARTFsys
      0200000FH   SYMBOL    XDATA    DWORD     BaudRate
      02000013H   SYMBOL    XDATA    BYTE      Mode
      02000014H   SYMBOL    XDATA    BYTE      RxMode
      ---         BLOCKEND  ---      ---       LVL=0

      010006A3H   BLOCK     CODE     ---       LVL=0
      010006A3H   LINE      ---      ---       #365
      010006A3H   LINE      ---      ---       #366
      010006A3H   LINE      ---      ---       #367
      010006A5H   LINE      ---      ---       #368
      00000007H   SYMBOL    DATA     BYTE      Data
      ---         BLOCKEND  ---      ---       LVL=0
      00000004H   SYMBOL    DATA     WORD      Data
      00000007H   SYMBOL    DATA     BYTE      Data_9Bit
      00000006H   SYMBOL    DATA     WORD      Data9

      010006DFH   BLOCK     CODE     ---       LVL=0
      010006DFH   LINE      ---      ---       #428
      010006DFH   LINE      ---      ---       #429
      010006DFH   LINE      ---      ---       #430
      010006E2H   LINE      ---      ---       #431
      010006E2H   LINE      ---      ---       #432
      010006E5H   LINE      ---      ---       #433
      010006E7H   LINE      ---      ---       #435
      010006E7H   LINE      ---      ---       #436
      010006EAH   LINE      ---      ---       #437
      010006EAH   LINE      ---      ---       #440
      010006EDH   LINE      ---      ---       #441
      010006EDH   LINE      ---      ---       #442
      010006F0H   LINE      ---      ---       #443
      010006F1H   LINE      ---      ---       #445
      010006F1H   LINE      ---      ---       #446
      010006F4H   LINE      ---      ---       #447
      010006F4H   LINE      ---      ---       #448
      00000007H   SYMBOL    DATA     BYTE      NewState
      00000005H   SYMBOL    DATA     BYTE      Priority
      ---         BLOCKEND  ---      ---       LVL=0

      010008FCH   BLOCK     CODE     ---       LVL=0
      010008FCH   LINE      ---      ---       #458
      010008FCH   LINE      ---      ---       #459
      00000007H   SYMBOL    DATA     BYTE      USCI0_FLAG
      010008FCH   BLOCK     CODE     NEAR LAB  LVL=1
      010008FCH   LINE      ---      ---       #460
      010008FCH   LINE      ---      ---       #466
      01000911H   LINE      ---      ---       #468
      01000911H   LINE      ---      ---       #469
      01000916H   LINE      ---      ---       #470
      01000916H   LINE      ---      ---       #471
      01000918H   LINE      ---      ---       #472
      0100091AH   LINE      ---      ---       #474
      0100091AH   LINE      ---      ---       #475
      0100091CH   LINE      ---      ---       #476
      0100091CH   LINE      ---      ---       #477
      0100091EH   LINE      ---      ---       #479
      0100091EH   LINE      ---      ---       #480
      01000923H   LINE      ---      ---       #481
LX51 LINKER/LOCATER V4.66.97.0                                                        09/08/2023  13:28:22  PAGE 44


      01000923H   LINE      ---      ---       #482
      01000925H   LINE      ---      ---       #483
      01000927H   LINE      ---      ---       #485
      01000927H   LINE      ---      ---       #486
      01000929H   LINE      ---      ---       #487
      01000929H   LINE      ---      ---       #488
      01000929H   LINE      ---      ---       #490
      0100092BH   LINE      ---      ---       #491
      00000006H   SYMBOL    DATA     BYTE      bitstatus
      ---         BLOCKEND  CODE     ---       LVL=1
      ---         BLOCKEND  CODE     ---       LVL=0

      010008CAH   BLOCK     CODE     ---       LVL=0
      010008CAH   LINE      ---      ---       #500
      010008CAH   LINE      ---      ---       #501
      010008CAH   LINE      ---      ---       #508
      010008DFH   LINE      ---      ---       #511
      010008DFH   LINE      ---      ---       #512
      010008E3H   LINE      ---      ---       #513
      010008E4H   LINE      ---      ---       #514
      010008EFH   LINE      ---      ---       #515
      010008EFH   LINE      ---      ---       #517
      010008F6H   LINE      ---      ---       #521
      010008F7H   LINE      ---      ---       #523
      010008F7H   LINE      ---      ---       #524
      010008FBH   LINE      ---      ---       #525
      010008FBH   LINE      ---      ---       #526
      00000007H   SYMBOL    DATA     BYTE      USCI0_FLAG
      ---         BLOCKEND  ---      ---       LVL=0
      00000007H   SYMBOL    DATA     BYTE      Addr
      00000005H   SYMBOL    DATA     BYTE      RW
      00000005H   SYMBOL    DATA     BYTE      length

      ---         MODULE    ---      ---       SC95F_INT
      010005F5H   PUBLIC    CODE     ---       _INT1_ITConfig
      0100071FH   PUBLIC    CODE     ---       _INT1_SetTriggerMode
      000000C8H.2 SFRSYM    DATA     BIT       TRX
      000000FFH   SFRSYM    DATA     BYTE      OPREG
      00000080H   SFRSYM    DATA     BYTE      P0
      00000090H   SFRSYM    DATA     BYTE      P1
      000000A0H   SFRSYM    DATA     BYTE      P2
      000000A8H.4 SFRSYM    DATA     BIT       EUART
      0000008EH   SFRSYM    DATA     BYTE      TMCON
      000000B0H   SFRSYM    DATA     BYTE      P3
      000000D0H.6 SFRSYM    DATA     BIT       AC
      000000C0H   SFRSYM    DATA     BYTE      P4
      0000008FH   SFRSYM    DATA     BYTE      OTCON
      000000D8H   SFRSYM    DATA     BYTE      P5
      000000A8H.7 SFRSYM    DATA     BIT       EA
      000000C8H.5 SFRSYM    DATA     BIT       RCLKX
      000000D2H   SFRSYM    DATA     BYTE      PWMCON0
      000000C8H.4 SFRSYM    DATA     BIT       TCLKX
      000000D3H   SFRSYM    DATA     BYTE      PWMCON1
      000000C8H.3 SFRSYM    DATA     BIT       EXENX
      000000A8H.6 SFRSYM    DATA     BIT       EADC
      000000C9H   SFRSYM    DATA     BYTE      TXMOD
      000000C8H   SFRSYM    DATA     BYTE      TXCON
      000000A8H   SFRSYM    DATA     BYTE      IE
      00000085H   SFRSYM    DATA     BYTE      DPH1
      000000E9H   SFRSYM    DATA     BYTE      EXA0
      000000FEH   SFRSYM    DATA     BYTE      OPINX
      000000EAH   SFRSYM    DATA     BYTE      EXA1
      000000EBH   SFRSYM    DATA     BYTE      EXA2
      000000ECH   SFRSYM    DATA     BYTE      EXA3
      00000084H   SFRSYM    DATA     BYTE      DPL1
LX51 LINKER/LOCATER V4.66.97.0                                                        09/08/2023  13:28:22  PAGE 45


      000000C8H.0 SFRSYM    DATA     BIT       CP
      000000C4H   SFRSYM    DATA     BYTE      USXCON0
      000000C5H   SFRSYM    DATA     BYTE      USXCON1
      000000C6H   SFRSYM    DATA     BYTE      USXCON2
      000000C7H   SFRSYM    DATA     BYTE      USXCON3
      000000EFH   SFRSYM    DATA     BYTE      OPERCON
      0000009BH   SFRSYM    DATA     BYTE      P0PH
      000000B8H   SFRSYM    DATA     BYTE      IP
      00000092H   SFRSYM    DATA     BYTE      P1PH
      00000098H.0 SFRSYM    DATA     BIT       RI
      000000A2H   SFRSYM    DATA     BYTE      P2PH
      000000D0H.7 SFRSYM    DATA     BIT       CY
      000000B2H   SFRSYM    DATA     BYTE      P3PH
      00000098H.1 SFRSYM    DATA     BIT       TI
      000000CEH   SFRSYM    DATA     BYTE      TXINX
      000000C2H   SFRSYM    DATA     BYTE      P4PH
      000000B8H.1 SFRSYM    DATA     BIT       IPT0
      000000DAH   SFRSYM    DATA     BYTE      P5PH
      000000B8H.3 SFRSYM    DATA     BIT       IPT1
      000000B8H.5 SFRSYM    DATA     BIT       IPT2
      00000081H   SFRSYM    DATA     BYTE      SP
      000000D0H.2 SFRSYM    DATA     BIT       OV
      000000F4H   SFRSYM    DATA     BYTE      IAPADE
      0000009CH   SFRSYM    DATA     BYTE      P0VO
      00000094H   SFRSYM    DATA     BYTE      P1VO
      000000A3H   SFRSYM    DATA     BYTE      P2VO
      000000EEH   SFRSYM    DATA     BYTE      EXBH
      000000F3H   SFRSYM    DATA     BYTE      IAPADH
      000000B3H   SFRSYM    DATA     BYTE      P3VO
      000000ADH   SFRSYM    DATA     BYTE      ADCCON
      000000C8H.1 SFRSYM    DATA     BIT       TX
      000000EDH   SFRSYM    DATA     BYTE      EXBL
      000000F2H   SFRSYM    DATA     BYTE      IAPADL
      00000080H.0 SFRSYM    DATA     BIT       P00
      00000090H.0 SFRSYM    DATA     BIT       P10
      00000080H.1 SFRSYM    DATA     BIT       P01
      00000099H   SFRSYM    DATA     BYTE      SBUF
      00000087H   SFRSYM    DATA     BYTE      PCON
      000000A0H.0 SFRSYM    DATA     BIT       P20
      00000090H.1 SFRSYM    DATA     BIT       P11
      00000080H.2 SFRSYM    DATA     BIT       P02
      000000B6H   SFRSYM    DATA     BYTE      CMPCFG
      000000B0H.0 SFRSYM    DATA     BIT       P30
      000000A0H.1 SFRSYM    DATA     BIT       P21
      00000090H.2 SFRSYM    DATA     BIT       P12
      00000080H.3 SFRSYM    DATA     BIT       P03
      000000C0H.0 SFRSYM    DATA     BIT       P40
      000000B0H.1 SFRSYM    DATA     BIT       P31
      000000A0H.2 SFRSYM    DATA     BIT       P22
      00000090H.3 SFRSYM    DATA     BIT       P13
      00000080H.4 SFRSYM    DATA     BIT       P04
      00000098H   SFRSYM    DATA     BYTE      SCON
      000000D8H.0 SFRSYM    DATA     BIT       P50
      000000C0H.1 SFRSYM    DATA     BIT       P41
      000000B0H.2 SFRSYM    DATA     BIT       P32
      000000A0H.3 SFRSYM    DATA     BIT       P23
      00000090H.4 SFRSYM    DATA     BIT       P14
      00000080H.5 SFRSYM    DATA     BIT       P05
      000000F5H   SFRSYM    DATA     BYTE      IAPDAT
      00000089H   SFRSYM    DATA     BYTE      TMOD
      00000088H   SFRSYM    DATA     BYTE      TCON
      000000D8H.1 SFRSYM    DATA     BIT       P51
      000000C0H.2 SFRSYM    DATA     BIT       P42
      000000B0H.3 SFRSYM    DATA     BIT       P33
      000000A0H.4 SFRSYM    DATA     BIT       P24
LX51 LINKER/LOCATER V4.66.97.0                                                        09/08/2023  13:28:22  PAGE 46


      00000090H.5 SFRSYM    DATA     BIT       P15
      00000080H.6 SFRSYM    DATA     BIT       P06
      000000B8H.0 SFRSYM    DATA     BIT       IPINT0
      000000D8H.2 SFRSYM    DATA     BIT       P52
      000000C0H.3 SFRSYM    DATA     BIT       P43
      000000B0H.4 SFRSYM    DATA     BIT       P34
      000000A0H.5 SFRSYM    DATA     BIT       P25
      00000090H.6 SFRSYM    DATA     BIT       P16
      00000080H.7 SFRSYM    DATA     BIT       P07
      000000B8H.2 SFRSYM    DATA     BIT       IPINT1
      000000D8H.3 SFRSYM    DATA     BIT       P53
      000000C0H.4 SFRSYM    DATA     BIT       P44
      000000B0H.5 SFRSYM    DATA     BIT       P35
      000000A0H.6 SFRSYM    DATA     BIT       P26
      00000090H.7 SFRSYM    DATA     BIT       P17
      000000FDH   SFRSYM    DATA     BYTE      CRCREG
      000000D8H.4 SFRSYM    DATA     BIT       P54
      000000C0H.5 SFRSYM    DATA     BIT       P45
      000000B0H.6 SFRSYM    DATA     BIT       P36
      000000A0H.7 SFRSYM    DATA     BIT       P27
      000000D8H.5 SFRSYM    DATA     BIT       P55
      000000C0H.6 SFRSYM    DATA     BIT       P46
      000000B0H.7 SFRSYM    DATA     BIT       P37
      000000C0H.7 SFRSYM    DATA     BIT       P47
      000000C8H.6 SFRSYM    DATA     BIT       EXFX
      00000093H   SFRSYM    DATA     BYTE      DDRCON
      000000F6H   SFRSYM    DATA     BYTE      IAPCTL
      000000A9H   SFRSYM    DATA     BYTE      IE1
      000000AAH   SFRSYM    DATA     BYTE      IE2
      000000F0H   SFRSYM    DATA     BYTE      B
      000000B7H   SFRSYM    DATA     BYTE      CMPCON
      000000F1H   SFRSYM    DATA     BYTE      IAPKEY
      000000FBH   SFRSYM    DATA     BYTE      BTMCON
      000000D1H   SFRSYM    DATA     BYTE      PWMCFG
      000000E0H   SFRSYM    DATA     BYTE      ACC
      000000CBH   SFRSYM    DATA     BYTE      RCAPXH
      000000A8H.1 SFRSYM    DATA     BIT       ET0
      000000FCH   SFRSYM    DATA     BYTE      CRCINX
      00000088H.5 SFRSYM    DATA     BIT       TF0
      000000A8H.3 SFRSYM    DATA     BIT       ET1
      000000ABH   SFRSYM    DATA     BYTE      ADCCFG0
      000000B9H   SFRSYM    DATA     BYTE      IP1
      00000088H.7 SFRSYM    DATA     BIT       TF1
      000000A8H.5 SFRSYM    DATA     BIT       ET2
      000000ACH   SFRSYM    DATA     BYTE      ADCCFG1
      000000BAH   SFRSYM    DATA     BYTE      IP2
      000000DFH   SFRSYM    DATA     BYTE      ROMBNK
      00000098H.2 SFRSYM    DATA     BIT       RB8
      000000B5H   SFRSYM    DATA     BYTE      ADCCFG2
      000000CAH   SFRSYM    DATA     BYTE      RCAPXL
      0000008CH   SFRSYM    DATA     BYTE      TH0
      0000008DH   SFRSYM    DATA     BYTE      TH1
      00000098H.3 SFRSYM    DATA     BIT       TB8
      000000D0H.0 SFRSYM    DATA     BIT       P
      00000098H.7 SFRSYM    DATA     BIT       SM0
      0000008AH   SFRSYM    DATA     BYTE      TL0
      00000098H.6 SFRSYM    DATA     BIT       SM1
      000000CFH   SFRSYM    DATA     BYTE      WDTCON
      0000008BH   SFRSYM    DATA     BYTE      TL1
      00000098H.5 SFRSYM    DATA     BIT       SM2
      000000D6H   SFRSYM    DATA     BYTE      PWMDFR
      000000D5H   SFRSYM    DATA     BYTE      PWMPDH
      000000D0H.3 SFRSYM    DATA     BIT       RS0
      00000088H.4 SFRSYM    DATA     BIT       TR0
      000000D0H.4 SFRSYM    DATA     BIT       RS1
LX51 LINKER/LOCATER V4.66.97.0                                                        09/08/2023  13:28:22  PAGE 47


      000000D4H   SFRSYM    DATA     BYTE      PWMPDL
      00000088H.6 SFRSYM    DATA     BIT       TR1
      000000B8H.4 SFRSYM    DATA     BIT       IPUART
      000000D7H   SFRSYM    DATA     BYTE      PWMFLT
      00000083H   SFRSYM    DATA     BYTE      DPH
      00000082H   SFRSYM    DATA     BYTE      DPL
      000000A8H.0 SFRSYM    DATA     BIT       EINT0
      0000009AH   SFRSYM    DATA     BYTE      P0CON
      000000A8H.2 SFRSYM    DATA     BIT       EINT1
      000000B8H.6 SFRSYM    DATA     BIT       IPADC
      000000B4H   SFRSYM    DATA     BYTE      INT0F
      00000091H   SFRSYM    DATA     BYTE      P1CON
      000000BCH   SFRSYM    DATA     BYTE      INT1F
      000000A1H   SFRSYM    DATA     BYTE      P2CON
      000000BEH   SFRSYM    DATA     BYTE      INT2F
      000000B1H   SFRSYM    DATA     BYTE      P3CON
      00000098H.4 SFRSYM    DATA     BIT       REN
      000000C1H   SFRSYM    DATA     BYTE      P4CON
      000000D9H   SFRSYM    DATA     BYTE      P5CON
      000000AFH   SFRSYM    DATA     BYTE      ADCVH
      00000086H   SFRSYM    DATA     BYTE      DPS
      00000095H   SFRSYM    DATA     BYTE      US0CON0
      000000A4H   SFRSYM    DATA     BYTE      US1CON0
      0000009DH   SFRSYM    DATA     BYTE      US0CON1
      000000AEH   SFRSYM    DATA     BYTE      ADCVL
      000000F7H   SFRSYM    DATA     BYTE      EXADH
      000000A5H   SFRSYM    DATA     BYTE      US1CON1
      0000009EH   SFRSYM    DATA     BYTE      US0CON2
      000000A6H   SFRSYM    DATA     BYTE      US1CON2
      0000009FH   SFRSYM    DATA     BYTE      US0CON3
      000000A7H   SFRSYM    DATA     BYTE      US1CON3
      000000BBH   SFRSYM    DATA     BYTE      INT0R
      000000BDH   SFRSYM    DATA     BYTE      INT1R
      000000BFH   SFRSYM    DATA     BYTE      INT2R
      000000DCH   SFRSYM    DATA     BYTE      USXINX
      000000C8H.7 SFRSYM    DATA     BIT       TFX
      00000096H   SFRSYM    DATA     BYTE      IOHCON0
      00000097H   SFRSYM    DATA     BYTE      IOHCON1
      000000CDH   SFRSYM    DATA     BYTE      THX
      000000D0H.5 SFRSYM    DATA     BIT       F0
      000000D0H.1 SFRSYM    DATA     BIT       F1
      000000CCH   SFRSYM    DATA     BYTE      TLX
      000000D0H   SFRSYM    DATA     BYTE      PSW
      00000007H   SYMBOL    DATA     BYTE      INTx
      00000007H   SYMBOL    DATA     BYTE      INT0x
      00000005H   SYMBOL    DATA     BYTE      TriggerMode

      0100071FH   BLOCK     CODE     ---       LVL=0
      0100071FH   LINE      ---      ---       #96
      0100071FH   LINE      ---      ---       #97
      0100071FH   LINE      ---      ---       #98
      0100072EH   LINE      ---      ---       #99
      0100072EH   LINE      ---      ---       #100
      0100072EH   LINE      ---      ---       #101
      01000731H   LINE      ---      ---       #102
      01000735H   LINE      ---      ---       #103
      01000736H   LINE      ---      ---       #105
      01000736H   LINE      ---      ---       #106
      0100073AH   LINE      ---      ---       #107
      0100073AH   LINE      ---      ---       #108
      0100073CH   LINE      ---      ---       #110
      0100073CH   LINE      ---      ---       #111
      0100073FH   LINE      ---      ---       #112
      01000742H   LINE      ---      ---       #113
      01000743H   LINE      ---      ---       #115
LX51 LINKER/LOCATER V4.66.97.0                                                        09/08/2023  13:28:22  PAGE 48


      01000743H   LINE      ---      ---       #116
      01000747H   LINE      ---      ---       #117
      01000749H   LINE      ---      ---       #119
      01000749H   LINE      ---      ---       #120
      01000749H   LINE      ---      ---       #121
      01000749H   LINE      ---      ---       #122
      00000007H   SYMBOL    DATA     BYTE      INT1x
      00000005H   SYMBOL    DATA     BYTE      TriggerMode
      ---         BLOCKEND  ---      ---       LVL=0
      00000007H   SYMBOL    DATA     BYTE      INT2x
      00000005H   SYMBOL    DATA     BYTE      TriggerMode
      00000007H   SYMBOL    DATA     BYTE      NewState
      00000005H   SYMBOL    DATA     BYTE      Priority

      010005F5H   BLOCK     CODE     ---       LVL=0
      010005F5H   LINE      ---      ---       #197
      010005F5H   LINE      ---      ---       #198
      010005F5H   LINE      ---      ---       #199
      010005F8H   LINE      ---      ---       #200
      010005F8H   LINE      ---      ---       #201
      010005FBH   LINE      ---      ---       #202
      010005FDH   LINE      ---      ---       #204
      010005FDH   LINE      ---      ---       #205
      01000600H   LINE      ---      ---       #206
      01000600H   LINE      ---      ---       #208
      01000603H   LINE      ---      ---       #209
      01000603H   LINE      ---      ---       #210
      01000606H   LINE      ---      ---       #211
      01000607H   LINE      ---      ---       #213
      01000607H   LINE      ---      ---       #214
      0100060AH   LINE      ---      ---       #215
      0100060AH   LINE      ---      ---       #216
      00000007H   SYMBOL    DATA     BYTE      NewState
      00000005H   SYMBOL    DATA     BYTE      Priority
      ---         BLOCKEND  ---      ---       LVL=0
      00000007H   SYMBOL    DATA     BYTE      NewState
      00000005H   SYMBOL    DATA     BYTE      Priority

      ---         MODULE    ---      ---       SC95F_GPIO
      010007A8H   PUBLIC    CODE     ---       _GPIO_ReadPin
      01000776H   PUBLIC    CODE     ---       _GPIO_WriteLow
      0100074AH   PUBLIC    CODE     ---       _GPIO_WriteHigh
      01000488H   PUBLIC    CODE     ---       _GPIO_Init
      000000C8H.2 SFRSYM    DATA     BIT       TRX
      000000FFH   SFRSYM    DATA     BYTE      OPREG
      00000080H   SFRSYM    DATA     BYTE      P0
      00000090H   SFRSYM    DATA     BYTE      P1
      000000A0H   SFRSYM    DATA     BYTE      P2
      000000A8H.4 SFRSYM    DATA     BIT       EUART
      0000008EH   SFRSYM    DATA     BYTE      TMCON
      000000B0H   SFRSYM    DATA     BYTE      P3
      000000D0H.6 SFRSYM    DATA     BIT       AC
      000000C0H   SFRSYM    DATA     BYTE      P4
      0000008FH   SFRSYM    DATA     BYTE      OTCON
      000000D8H   SFRSYM    DATA     BYTE      P5
      000000A8H.7 SFRSYM    DATA     BIT       EA
      000000C8H.5 SFRSYM    DATA     BIT       RCLKX
      000000D2H   SFRSYM    DATA     BYTE      PWMCON0
      000000C8H.4 SFRSYM    DATA     BIT       TCLKX
      000000D3H   SFRSYM    DATA     BYTE      PWMCON1
      000000C8H.3 SFRSYM    DATA     BIT       EXENX
      000000A8H.6 SFRSYM    DATA     BIT       EADC
      000000C9H   SFRSYM    DATA     BYTE      TXMOD
      000000C8H   SFRSYM    DATA     BYTE      TXCON
      000000A8H   SFRSYM    DATA     BYTE      IE
LX51 LINKER/LOCATER V4.66.97.0                                                        09/08/2023  13:28:22  PAGE 49


      00000085H   SFRSYM    DATA     BYTE      DPH1
      000000E9H   SFRSYM    DATA     BYTE      EXA0
      000000FEH   SFRSYM    DATA     BYTE      OPINX
      000000EAH   SFRSYM    DATA     BYTE      EXA1
      000000EBH   SFRSYM    DATA     BYTE      EXA2
      000000ECH   SFRSYM    DATA     BYTE      EXA3
      00000084H   SFRSYM    DATA     BYTE      DPL1
      000000C8H.0 SFRSYM    DATA     BIT       CP
      000000C4H   SFRSYM    DATA     BYTE      USXCON0
      000000C5H   SFRSYM    DATA     BYTE      USXCON1
      000000C6H   SFRSYM    DATA     BYTE      USXCON2
      000000C7H   SFRSYM    DATA     BYTE      USXCON3
      000000EFH   SFRSYM    DATA     BYTE      OPERCON
      0000009BH   SFRSYM    DATA     BYTE      P0PH
      000000B8H   SFRSYM    DATA     BYTE      IP
      00000092H   SFRSYM    DATA     BYTE      P1PH
      00000098H.0 SFRSYM    DATA     BIT       RI
      000000A2H   SFRSYM    DATA     BYTE      P2PH
      000000D0H.7 SFRSYM    DATA     BIT       CY
      000000B2H   SFRSYM    DATA     BYTE      P3PH
      00000098H.1 SFRSYM    DATA     BIT       TI
      000000CEH   SFRSYM    DATA     BYTE      TXINX
      000000C2H   SFRSYM    DATA     BYTE      P4PH
      000000B8H.1 SFRSYM    DATA     BIT       IPT0
      000000DAH   SFRSYM    DATA     BYTE      P5PH
      000000B8H.3 SFRSYM    DATA     BIT       IPT1
      000000B8H.5 SFRSYM    DATA     BIT       IPT2
      00000081H   SFRSYM    DATA     BYTE      SP
      000000D0H.2 SFRSYM    DATA     BIT       OV
      000000F4H   SFRSYM    DATA     BYTE      IAPADE
      0000009CH   SFRSYM    DATA     BYTE      P0VO
      00000094H   SFRSYM    DATA     BYTE      P1VO
      000000A3H   SFRSYM    DATA     BYTE      P2VO
      000000EEH   SFRSYM    DATA     BYTE      EXBH
      000000F3H   SFRSYM    DATA     BYTE      IAPADH
      000000B3H   SFRSYM    DATA     BYTE      P3VO
      000000ADH   SFRSYM    DATA     BYTE      ADCCON
      000000C8H.1 SFRSYM    DATA     BIT       TX
      000000EDH   SFRSYM    DATA     BYTE      EXBL
      000000F2H   SFRSYM    DATA     BYTE      IAPADL
      00000080H.0 SFRSYM    DATA     BIT       P00
      00000090H.0 SFRSYM    DATA     BIT       P10
      00000080H.1 SFRSYM    DATA     BIT       P01
      00000099H   SFRSYM    DATA     BYTE      SBUF
      00000087H   SFRSYM    DATA     BYTE      PCON
      000000A0H.0 SFRSYM    DATA     BIT       P20
      00000090H.1 SFRSYM    DATA     BIT       P11
      00000080H.2 SFRSYM    DATA     BIT       P02
      000000B6H   SFRSYM    DATA     BYTE      CMPCFG
      000000B0H.0 SFRSYM    DATA     BIT       P30
      000000A0H.1 SFRSYM    DATA     BIT       P21
      00000090H.2 SFRSYM    DATA     BIT       P12
      00000080H.3 SFRSYM    DATA     BIT       P03
      000000C0H.0 SFRSYM    DATA     BIT       P40
      000000B0H.1 SFRSYM    DATA     BIT       P31
      000000A0H.2 SFRSYM    DATA     BIT       P22
      00000090H.3 SFRSYM    DATA     BIT       P13
      00000080H.4 SFRSYM    DATA     BIT       P04
      00000098H   SFRSYM    DATA     BYTE      SCON
      000000D8H.0 SFRSYM    DATA     BIT       P50
      000000C0H.1 SFRSYM    DATA     BIT       P41
      000000B0H.2 SFRSYM    DATA     BIT       P32
      000000A0H.3 SFRSYM    DATA     BIT       P23
      00000090H.4 SFRSYM    DATA     BIT       P14
      00000080H.5 SFRSYM    DATA     BIT       P05
LX51 LINKER/LOCATER V4.66.97.0                                                        09/08/2023  13:28:22  PAGE 50


      000000F5H   SFRSYM    DATA     BYTE      IAPDAT
      00000089H   SFRSYM    DATA     BYTE      TMOD
      00000088H   SFRSYM    DATA     BYTE      TCON
      000000D8H.1 SFRSYM    DATA     BIT       P51
      000000C0H.2 SFRSYM    DATA     BIT       P42
      000000B0H.3 SFRSYM    DATA     BIT       P33
      000000A0H.4 SFRSYM    DATA     BIT       P24
      00000090H.5 SFRSYM    DATA     BIT       P15
      00000080H.6 SFRSYM    DATA     BIT       P06
      000000B8H.0 SFRSYM    DATA     BIT       IPINT0
      000000D8H.2 SFRSYM    DATA     BIT       P52
      000000C0H.3 SFRSYM    DATA     BIT       P43
      000000B0H.4 SFRSYM    DATA     BIT       P34
      000000A0H.5 SFRSYM    DATA     BIT       P25
      00000090H.6 SFRSYM    DATA     BIT       P16
      00000080H.7 SFRSYM    DATA     BIT       P07
      000000B8H.2 SFRSYM    DATA     BIT       IPINT1
      000000D8H.3 SFRSYM    DATA     BIT       P53
      000000C0H.4 SFRSYM    DATA     BIT       P44
      000000B0H.5 SFRSYM    DATA     BIT       P35
      000000A0H.6 SFRSYM    DATA     BIT       P26
      00000090H.7 SFRSYM    DATA     BIT       P17
      000000FDH   SFRSYM    DATA     BYTE      CRCREG
      000000D8H.4 SFRSYM    DATA     BIT       P54
      000000C0H.5 SFRSYM    DATA     BIT       P45
      000000B0H.6 SFRSYM    DATA     BIT       P36
      000000A0H.7 SFRSYM    DATA     BIT       P27
      000000D8H.5 SFRSYM    DATA     BIT       P55
      000000C0H.6 SFRSYM    DATA     BIT       P46
      000000B0H.7 SFRSYM    DATA     BIT       P37
      000000C0H.7 SFRSYM    DATA     BIT       P47
      000000C8H.6 SFRSYM    DATA     BIT       EXFX
      00000093H   SFRSYM    DATA     BYTE      DDRCON
      000000F6H   SFRSYM    DATA     BYTE      IAPCTL
      000000A9H   SFRSYM    DATA     BYTE      IE1
      000000AAH   SFRSYM    DATA     BYTE      IE2
      000000F0H   SFRSYM    DATA     BYTE      B
      000000B7H   SFRSYM    DATA     BYTE      CMPCON
      000000F1H   SFRSYM    DATA     BYTE      IAPKEY
      000000FBH   SFRSYM    DATA     BYTE      BTMCON
      000000D1H   SFRSYM    DATA     BYTE      PWMCFG
      000000E0H   SFRSYM    DATA     BYTE      ACC
      000000CBH   SFRSYM    DATA     BYTE      RCAPXH
      000000A8H.1 SFRSYM    DATA     BIT       ET0
      000000FCH   SFRSYM    DATA     BYTE      CRCINX
      00000088H.5 SFRSYM    DATA     BIT       TF0
      000000A8H.3 SFRSYM    DATA     BIT       ET1
      000000ABH   SFRSYM    DATA     BYTE      ADCCFG0
      000000B9H   SFRSYM    DATA     BYTE      IP1
      00000088H.7 SFRSYM    DATA     BIT       TF1
      000000A8H.5 SFRSYM    DATA     BIT       ET2
      000000ACH   SFRSYM    DATA     BYTE      ADCCFG1
      000000BAH   SFRSYM    DATA     BYTE      IP2
      000000DFH   SFRSYM    DATA     BYTE      ROMBNK
      00000098H.2 SFRSYM    DATA     BIT       RB8
      000000B5H   SFRSYM    DATA     BYTE      ADCCFG2
      000000CAH   SFRSYM    DATA     BYTE      RCAPXL
      0000008CH   SFRSYM    DATA     BYTE      TH0
      0000008DH   SFRSYM    DATA     BYTE      TH1
      00000098H.3 SFRSYM    DATA     BIT       TB8
      000000D0H.0 SFRSYM    DATA     BIT       P
      00000098H.7 SFRSYM    DATA     BIT       SM0
      0000008AH   SFRSYM    DATA     BYTE      TL0
      00000098H.6 SFRSYM    DATA     BIT       SM1
      000000CFH   SFRSYM    DATA     BYTE      WDTCON
LX51 LINKER/LOCATER V4.66.97.0                                                        09/08/2023  13:28:22  PAGE 51


      0000008BH   SFRSYM    DATA     BYTE      TL1
      00000098H.5 SFRSYM    DATA     BIT       SM2
      000000D6H   SFRSYM    DATA     BYTE      PWMDFR
      000000D5H   SFRSYM    DATA     BYTE      PWMPDH
      000000D0H.3 SFRSYM    DATA     BIT       RS0
      00000088H.4 SFRSYM    DATA     BIT       TR0
      000000D0H.4 SFRSYM    DATA     BIT       RS1
      000000D4H   SFRSYM    DATA     BYTE      PWMPDL
      00000088H.6 SFRSYM    DATA     BIT       TR1
      000000B8H.4 SFRSYM    DATA     BIT       IPUART
      000000D7H   SFRSYM    DATA     BYTE      PWMFLT
      00000083H   SFRSYM    DATA     BYTE      DPH
      00000082H   SFRSYM    DATA     BYTE      DPL
      000000A8H.0 SFRSYM    DATA     BIT       EINT0
      0000009AH   SFRSYM    DATA     BYTE      P0CON
      000000A8H.2 SFRSYM    DATA     BIT       EINT1
      000000B8H.6 SFRSYM    DATA     BIT       IPADC
      000000B4H   SFRSYM    DATA     BYTE      INT0F
      00000091H   SFRSYM    DATA     BYTE      P1CON
      000000BCH   SFRSYM    DATA     BYTE      INT1F
      000000A1H   SFRSYM    DATA     BYTE      P2CON
      000000BEH   SFRSYM    DATA     BYTE      INT2F
      000000B1H   SFRSYM    DATA     BYTE      P3CON
      00000098H.4 SFRSYM    DATA     BIT       REN
      000000C1H   SFRSYM    DATA     BYTE      P4CON
      000000D9H   SFRSYM    DATA     BYTE      P5CON
      000000AFH   SFRSYM    DATA     BYTE      ADCVH
      00000086H   SFRSYM    DATA     BYTE      DPS
      00000095H   SFRSYM    DATA     BYTE      US0CON0
      000000A4H   SFRSYM    DATA     BYTE      US1CON0
      0000009DH   SFRSYM    DATA     BYTE      US0CON1
      000000AEH   SFRSYM    DATA     BYTE      ADCVL
      000000F7H   SFRSYM    DATA     BYTE      EXADH
      000000A5H   SFRSYM    DATA     BYTE      US1CON1
      0000009EH   SFRSYM    DATA     BYTE      US0CON2
      000000A6H   SFRSYM    DATA     BYTE      US1CON2
      0000009FH   SFRSYM    DATA     BYTE      US0CON3
      000000A7H   SFRSYM    DATA     BYTE      US1CON3
      000000BBH   SFRSYM    DATA     BYTE      INT0R
      000000BDH   SFRSYM    DATA     BYTE      INT1R
      000000BFH   SFRSYM    DATA     BYTE      INT2R
      000000DCH   SFRSYM    DATA     BYTE      USXINX
      000000C8H.7 SFRSYM    DATA     BIT       TFX
      00000096H   SFRSYM    DATA     BYTE      IOHCON0
      00000097H   SFRSYM    DATA     BYTE      IOHCON1
      000000CDH   SFRSYM    DATA     BYTE      THX
      000000D0H.5 SFRSYM    DATA     BIT       F0
      000000D0H.1 SFRSYM    DATA     BIT       F1
      000000CCH   SFRSYM    DATA     BYTE      TLX
      000000D0H   SFRSYM    DATA     BYTE      PSW

      01000488H   BLOCK     CODE     ---       LVL=0
      01000488H   LINE      ---      ---       #58
      01000488H   LINE      ---      ---       #59
      01000488H   LINE      ---      ---       #61
      010004A2H   LINE      ---      ---       #62
      010004A2H   LINE      ---      ---       #63
      010004A2H   LINE      ---      ---       #64
      010004A2H   LINE      ---      ---       #65
      010004AFH   LINE      ---      ---       #66
      010004AFH   LINE      ---      ---       #68
      010004AFH   LINE      ---      ---       #69
      010004B3H   LINE      ---      ---       #70
      010004B5H   LINE      ---      ---       #71
      010004B6H   LINE      ---      ---       #73
LX51 LINKER/LOCATER V4.66.97.0                                                        09/08/2023  13:28:22  PAGE 52


      010004B6H   LINE      ---      ---       #74
      010004BAH   LINE      ---      ---       #75
      010004BDH   LINE      ---      ---       #76
      010004BEH   LINE      ---      ---       #78
      010004BEH   LINE      ---      ---       #79
      010004C1H   LINE      ---      ---       #80
      010004C2H   LINE      ---      ---       #81
      010004C2H   LINE      ---      ---       #82
      010004C2H   LINE      ---      ---       #83
      010004C2H   LINE      ---      ---       #84
      010004C2H   LINE      ---      ---       #85
      010004C2H   LINE      ---      ---       #86
      010004C2H   LINE      ---      ---       #87
      010004C2H   LINE      ---      ---       #88
      010004CFH   LINE      ---      ---       #89
      010004CFH   LINE      ---      ---       #91
      010004CFH   LINE      ---      ---       #92
      010004D3H   LINE      ---      ---       #93
      010004D5H   LINE      ---      ---       #94
      010004D6H   LINE      ---      ---       #96
      010004D6H   LINE      ---      ---       #97
      010004DAH   LINE      ---      ---       #98
      010004DDH   LINE      ---      ---       #99
      010004DEH   LINE      ---      ---       #101
      010004DEH   LINE      ---      ---       #102
      010004E1H   LINE      ---      ---       #103
      010004E2H   LINE      ---      ---       #104
      010004E2H   LINE      ---      ---       #105
      010004E2H   LINE      ---      ---       #106
      010004E2H   LINE      ---      ---       #107
      010004E2H   LINE      ---      ---       #108
      010004E2H   LINE      ---      ---       #109
      010004E2H   LINE      ---      ---       #110
      010004E2H   LINE      ---      ---       #111
      010004EDH   LINE      ---      ---       #112
      010004EDH   LINE      ---      ---       #114
      010004EDH   LINE      ---      ---       #115
      010004F1H   LINE      ---      ---       #116
      010004F3H   LINE      ---      ---       #117
      010004F4H   LINE      ---      ---       #119
      010004F4H   LINE      ---      ---       #120
      010004F8H   LINE      ---      ---       #121
      010004FBH   LINE      ---      ---       #122
      010004FCH   LINE      ---      ---       #124
      010004FCH   LINE      ---      ---       #125
      010004FFH   LINE      ---      ---       #126
      01000500H   LINE      ---      ---       #127
      01000500H   LINE      ---      ---       #128
      01000500H   LINE      ---      ---       #129
      01000500H   LINE      ---      ---       #130
      01000500H   LINE      ---      ---       #131
      01000500H   LINE      ---      ---       #134
      01000500H   LINE      ---      ---       #135
      01000500H   LINE      ---      ---       #136
      0100050BH   LINE      ---      ---       #137
      0100050BH   LINE      ---      ---       #139
      0100050BH   LINE      ---      ---       #140
      0100050FH   LINE      ---      ---       #141
      01000511H   LINE      ---      ---       #142
      01000512H   LINE      ---      ---       #144
      01000512H   LINE      ---      ---       #145
      01000516H   LINE      ---      ---       #146
      01000519H   LINE      ---      ---       #147
      0100051AH   LINE      ---      ---       #149
      0100051AH   LINE      ---      ---       #150
LX51 LINKER/LOCATER V4.66.97.0                                                        09/08/2023  13:28:22  PAGE 53


      0100051DH   LINE      ---      ---       #151
      0100051EH   LINE      ---      ---       #152
      0100051EH   LINE      ---      ---       #153
      0100051EH   LINE      ---      ---       #154
      0100051EH   LINE      ---      ---       #155
      0100051EH   LINE      ---      ---       #156
      0100051EH   LINE      ---      ---       #157
      0100051EH   LINE      ---      ---       #158
      0100051EH   LINE      ---      ---       #159
      01000529H   LINE      ---      ---       #160
      01000529H   LINE      ---      ---       #162
      01000529H   LINE      ---      ---       #163
      0100052DH   LINE      ---      ---       #164
      0100052FH   LINE      ---      ---       #165
      01000530H   LINE      ---      ---       #167
      01000530H   LINE      ---      ---       #168
      01000534H   LINE      ---      ---       #169
      01000537H   LINE      ---      ---       #170
      01000538H   LINE      ---      ---       #172
      01000538H   LINE      ---      ---       #173
      0100053BH   LINE      ---      ---       #174
      0100053CH   LINE      ---      ---       #175
      0100053CH   LINE      ---      ---       #176
      0100053CH   LINE      ---      ---       #177
      0100053CH   LINE      ---      ---       #178
      0100053CH   LINE      ---      ---       #179
      0100053CH   LINE      ---      ---       #181
      0100053CH   LINE      ---      ---       #182
      0100053CH   LINE      ---      ---       #183
      01000547H   LINE      ---      ---       #184
      01000547H   LINE      ---      ---       #186
      01000547H   LINE      ---      ---       #187
      0100054BH   LINE      ---      ---       #188
      0100054DH   LINE      ---      ---       #189
      0100054EH   LINE      ---      ---       #191
      0100054EH   LINE      ---      ---       #192
      01000552H   LINE      ---      ---       #193
      01000555H   LINE      ---      ---       #194
      01000556H   LINE      ---      ---       #196
      01000556H   LINE      ---      ---       #197
      01000559H   LINE      ---      ---       #198
      01000559H   LINE      ---      ---       #199
      01000559H   LINE      ---      ---       #200
      01000559H   LINE      ---      ---       #201
      01000559H   LINE      ---      ---       #202
      01000559H   LINE      ---      ---       #203
      01000559H   LINE      ---      ---       #204
      01000559H   LINE      ---      ---       #205
      01000559H   LINE      ---      ---       #206
      01000559H   LINE      ---      ---       #207
      00000007H   SYMBOL    DATA     BYTE      GPIOx
      00000005H   SYMBOL    DATA     BYTE      PortPins
      00000003H   SYMBOL    DATA     BYTE      GPIO_Mode
      ---         BLOCKEND  ---      ---       LVL=0
      00000007H   SYMBOL    DATA     BYTE      GPIOx
      00000005H   SYMBOL    DATA     BYTE      PortVal

      0100074AH   BLOCK     CODE     ---       LVL=0
      0100074AH   LINE      ---      ---       #256
      0100074AH   LINE      ---      ---       #257
      0100074AH   LINE      ---      ---       #259
      0100075EH   LINE      ---      ---       #260
      0100075EH   LINE      ---      ---       #261
      0100075EH   LINE      ---      ---       #262
      01000761H   LINE      ---      ---       #263
LX51 LINKER/LOCATER V4.66.97.0                                                        09/08/2023  13:28:22  PAGE 54


      01000762H   LINE      ---      ---       #264
      01000762H   LINE      ---      ---       #265
      01000765H   LINE      ---      ---       #266
      01000766H   LINE      ---      ---       #267
      01000766H   LINE      ---      ---       #268
      01000769H   LINE      ---      ---       #269
      0100076AH   LINE      ---      ---       #272
      0100076AH   LINE      ---      ---       #273
      0100076DH   LINE      ---      ---       #274
      0100076EH   LINE      ---      ---       #275
      0100076EH   LINE      ---      ---       #276
      01000771H   LINE      ---      ---       #277
      01000772H   LINE      ---      ---       #279
      01000772H   LINE      ---      ---       #280
      01000775H   LINE      ---      ---       #281
      01000775H   LINE      ---      ---       #282
      01000775H   LINE      ---      ---       #283
      01000775H   LINE      ---      ---       #284
      01000775H   LINE      ---      ---       #285
      00000007H   SYMBOL    DATA     BYTE      GPIOx
      00000005H   SYMBOL    DATA     BYTE      PortPins
      ---         BLOCKEND  ---      ---       LVL=0

      01000776H   BLOCK     CODE     ---       LVL=0
      01000776H   LINE      ---      ---       #295
      01000776H   LINE      ---      ---       #296
      01000776H   LINE      ---      ---       #298
      0100078AH   LINE      ---      ---       #299
      0100078AH   LINE      ---      ---       #300
      0100078AH   LINE      ---      ---       #301
      0100078EH   LINE      ---      ---       #302
      0100078FH   LINE      ---      ---       #303
      0100078FH   LINE      ---      ---       #304
      01000793H   LINE      ---      ---       #305
      01000794H   LINE      ---      ---       #306
      01000794H   LINE      ---      ---       #307
      01000798H   LINE      ---      ---       #308
      01000799H   LINE      ---      ---       #311
      01000799H   LINE      ---      ---       #312
      0100079DH   LINE      ---      ---       #313
      0100079EH   LINE      ---      ---       #314
      0100079EH   LINE      ---      ---       #315
      010007A2H   LINE      ---      ---       #316
      010007A3H   LINE      ---      ---       #318
      010007A3H   LINE      ---      ---       #319
      010007A7H   LINE      ---      ---       #320
      010007A7H   LINE      ---      ---       #321
      010007A7H   LINE      ---      ---       #322
      010007A7H   LINE      ---      ---       #323
      010007A7H   LINE      ---      ---       #324
      00000007H   SYMBOL    DATA     BYTE      GPIOx
      00000005H   SYMBOL    DATA     BYTE      PortPins
      ---         BLOCKEND  ---      ---       LVL=0
      00000007H   SYMBOL    DATA     BYTE      GPIOx

      010007A8H   BLOCK     CODE     ---       LVL=0
      010007A8H   LINE      ---      ---       #368
      010007A8H   LINE      ---      ---       #369
      010007A8H   LINE      ---      ---       #371
      010007BCH   LINE      ---      ---       #372
      010007BCH   LINE      ---      ---       #373
      010007BCH   LINE      ---      ---       #374
      010007C1H   LINE      ---      ---       #375
      010007C1H   LINE      ---      ---       #376
      010007C6H   LINE      ---      ---       #377
LX51 LINKER/LOCATER V4.66.97.0                                                        09/08/2023  13:28:22  PAGE 55


      010007C6H   LINE      ---      ---       #378
      010007CBH   LINE      ---      ---       #381
      010007CBH   LINE      ---      ---       #382
      010007D0H   LINE      ---      ---       #383
      010007D0H   LINE      ---      ---       #384
      010007D5H   LINE      ---      ---       #386
      010007D5H   LINE      ---      ---       #387
      010007DAH   LINE      ---      ---       #388
      010007DAH   LINE      ---      ---       #389
      010007DCH   LINE      ---      ---       #390
      010007DCH   LINE      ---      ---       #391
      00000007H   SYMBOL    DATA     BYTE      GPIOx
      00000005H   SYMBOL    DATA     BYTE      PortPins
      ---         BLOCKEND  ---      ---       LVL=0
      00000007H   SYMBOL    DATA     BYTE      GPIOx
      00000005H   SYMBOL    DATA     BYTE      PortPins
      00000003H   SYMBOL    DATA     BYTE      GPIO_IOH_Grade

      ---         MODULE    ---      ---       ?C_STARTUP
      01000000H   PUBLIC    CODE     ---       ?C_STARTUP
      000000E0H   SYMBOL    DATA     ---       ACC
      000000F0H   SYMBOL    DATA     ---       B
      00000083H   SYMBOL    DATA     ---       DPH
      00000082H   SYMBOL    DATA     ---       DPL
      00000000H   SYMBOL    NUMBER   ---       IBPSTACK
      00000100H   SYMBOL    NUMBER   ---       IBPSTACKTOP
      00000100H   SYMBOL    NUMBER   ---       IDATALEN
      010002BDH   SYMBOL    CODE     ---       IDATALOOP
      00000000H   SYMBOL    NUMBER   ---       PBPSTACK
      00000100H   SYMBOL    NUMBER   ---       PBPSTACKTOP
      00000000H   SYMBOL    NUMBER   ---       PDATALEN
      00000000H   SYMBOL    NUMBER   ---       PDATASTART
      00000000H   SYMBOL    NUMBER   ---       PPAGE
      00000000H   SYMBOL    NUMBER   ---       PPAGEENABLE
      000000A0H   SYMBOL    DATA     ---       PPAGE_SFR
      00000081H   SYMBOL    DATA     ---       SP
      010002BAH   SYMBOL    CODE     ---       STARTUP1
      00000000H   SYMBOL    NUMBER   ---       XBPSTACK
      00000000H   SYMBOL    NUMBER   ---       XBPSTACKTOP
      00000100H   SYMBOL    NUMBER   ---       XDATALEN
      010002C8H   SYMBOL    CODE     ---       XDATALOOP
      00000000H   SYMBOL    NUMBER   ---       XDATASTART
      01000000H   LINE      CODE     ---       #126
      010002BAH   LINE      CODE     ---       #133
      010002BCH   LINE      CODE     ---       #134
      010002BDH   LINE      CODE     ---       #135
      010002BEH   LINE      CODE     ---       #136
      010002C0H   LINE      CODE     ---       #140
      010002C3H   LINE      CODE     ---       #141
      010002C5H   LINE      CODE     ---       #145
      010002C7H   LINE      CODE     ---       #147
      010002C8H   LINE      CODE     ---       #148
      010002C9H   LINE      CODE     ---       #149
      010002CAH   LINE      CODE     ---       #150
      010002CCH   LINE      CODE     ---       #151
      010002CEH   LINE      CODE     ---       #185
      010002D1H   LINE      CODE     ---       #196

      ---         MODULE    ---      ---       ?C_INIT
      0100030FH   PUBLIC    CODE     ---       ?C_START

      ---         MODULE    ---      ---       ?C?IILDX
      01000100H   PUBLIC    CODE     ---       ?C?IILDX

      ---         MODULE    ---      ---       ?C?ILDOPTR
LX51 LINKER/LOCATER V4.66.97.0                                                        09/08/2023  13:28:22  PAGE 56


      01000116H   PUBLIC    CODE     ---       ?C?ILDOPTR

      ---         MODULE    ---      ---       ?C?ULDIV
      0100018AH   PUBLIC    CODE     ---       ?C?ULDIV

      ---         MODULE    ---      ---       ?C?ULCMP
      0100021CH   PUBLIC    CODE     ---       ?C?ULCMP

      ---         MODULE    ---      ---       ?C?ULSHR
      0100022DH   PUBLIC    CODE     ---       ?C?ULSHR

      ---         MODULE    ---      ---       ?C?LSHL
      01000240H   PUBLIC    CODE     ---       ?C?LSHL

      ---         MODULE    ---      ---       ?C?LLDXDATA
      01000253H   PUBLIC    CODE     ---       ?C?LLDXDATA

      ---         MODULE    ---      ---       ?C?LLDXDATA0
      0100025FH   PUBLIC    CODE     ---       ?C?LLDXDATA0

      ---         MODULE    ---      ---       ?C?LSTXDATA
      0100026BH   PUBLIC    CODE     ---       ?C?LSTXDATA

      ---         MODULE    ---      ---       ?C?LSTKXDATA
      01000277H   PUBLIC    CODE     ---       ?C?LSTKXDATA

      ---         MODULE    ---      ---       ?C?PLDXDATA
      010002A8H   PUBLIC    CODE     ---       ?C?PLDXDATA

      ---         MODULE    ---      ---       ?C?PSTXDATA
      010002B1H   PUBLIC    CODE     ---       ?C?PSTXDATA

      ---         MODULE    ---      ---       ?L?COMMON
      01000457H   SYMBOL    CODE     NEAR LAB  ?L?COM0001
      010005D7H   SYMBOL    CODE     NEAR LAB  ?L?COM0003
      01000842H   SYMBOL    CODE     NEAR LAB  ?L?COM0004
      010005CCH   SYMBOL    CODE     NEAR LAB  ?L?COM0005
      0100046BH   SYMBOL    CODE     NEAR LAB  ?L?COM0006
      0100068CH   SYMBOL    CODE     NEAR LAB  ?L?COM0007
      0100069BH   SYMBOL    CODE     NEAR LAB  ?L?COM0008
      01000463H   SYMBOL    CODE     NEAR LAB  ?L?COM0009

Program Size: data=9.0 xdata=31 const=0 code=2165
LX51 RUN COMPLETE.  0 WARNING(S),  0 ERROR(S)
